	.file	"lodepng.c"
	.section	.text.unlikely,"ax",@progbits
.LCOLDB0:
	.text
.LHOTB0:
	.p2align 4,,15
	.type	bpmnode_create, @function
bpmnode_create:
.LFB55:
	.cfi_startproc
	pushl	%ebp
	.cfi_def_cfa_offset 8
	.cfi_offset 5, -8
	pushl	%edi
	.cfi_def_cfa_offset 12
	.cfi_offset 7, -12
	pushl	%esi
	.cfi_def_cfa_offset 16
	.cfi_offset 6, -16
	pushl	%ebx
	.cfi_def_cfa_offset 20
	.cfi_offset 3, -20
	subl	$8, %esp
	.cfi_def_cfa_offset 28
	movl	%edx, (%esp)
	movl	12(%eax), %edx
	cmpl	8(%eax), %edx
	movl	%ecx, 4(%esp)
	jb	.L41
	movl	(%eax), %ebx
	testl	%ebx, %ebx
	je	.L4
	movl	4(%eax), %edx
	movl	%ebx, %esi
	xorl	%ecx, %ecx
	sall	$4, %esi
	.p2align 4,,10
	.p2align 3
.L5:
	movl	$0, 12(%edx,%ecx)
	addl	$16, %ecx
	cmpl	%esi, %ecx
	jne	.L5
	movl	20(%eax), %esi
	testl	%esi, %esi
	je	.L6
.L20:
	movl	24(%eax), %ebp
	movl	28(%eax), %edi
	xorl	%ecx, %ecx
	.p2align 4,,10
	.p2align 3
.L12:
	movl	0(%ebp,%ecx,4), %edx
	testl	%edx, %edx
	je	.L11
	.p2align 4,,10
	.p2align 3
.L25:
	movl	$1, 12(%edx)
	movl	8(%edx), %edx
	testl	%edx, %edx
	jne	.L25
.L11:
	movl	(%edi,%ecx,4), %edx
	testl	%edx, %edx
	je	.L9
	.p2align 4,,10
	.p2align 3
.L24:
	movl	$1, 12(%edx)
	movl	8(%edx), %edx
	testl	%edx, %edx
	jne	.L24
.L9:
	addl	$1, %ecx
	cmpl	%esi, %ecx
	jne	.L12
	testl	%ebx, %ebx
	movl	$0, 8(%eax)
	je	.L16
	movl	4(%eax), %edx
.L15:
	xorl	%ecx, %ecx
	jmp	.L18
	.p2align 4,,10
	.p2align 3
.L42:
	movl	4(%eax), %edx
.L18:
	movl	%ecx, %esi
	sall	$4, %esi
	addl	%esi, %edx
	movl	12(%edx), %esi
	testl	%esi, %esi
	jne	.L17
	movl	8(%eax), %esi
	movl	16(%eax), %edi
	leal	1(%esi), %ebp
	movl	%ebp, 8(%eax)
	movl	%edx, (%edi,%esi,4)
.L17:
	addl	$1, %ecx
	cmpl	%ebx, %ecx
	jne	.L42
.L16:
	xorl	%edx, %edx
	movl	$1, %ebx
.L3:
	movl	16(%eax), %ecx
	movl	%ebx, 12(%eax)
	movl	(%esp), %edi
	movl	4(%esp), %ebx
	movl	(%ecx,%edx), %eax
	movl	28(%esp), %edx
	movl	%edi, (%eax)
	movl	%ebx, 4(%eax)
	movl	%edx, 8(%eax)
	addl	$8, %esp
	.cfi_remember_state
	.cfi_def_cfa_offset 20
	popl	%ebx
	.cfi_restore 3
	.cfi_def_cfa_offset 16
	popl	%esi
	.cfi_restore 6
	.cfi_def_cfa_offset 12
	popl	%edi
	.cfi_restore 7
	.cfi_def_cfa_offset 8
	popl	%ebp
	.cfi_restore 5
	.cfi_def_cfa_offset 4
	ret
.L41:
	.cfi_restore_state
	leal	1(%edx), %ebx
	sall	$2, %edx
	jmp	.L3
.L4:
	movl	20(%eax), %esi
	testl	%esi, %esi
	jne	.L20
	movl	$0, 8(%eax)
	jmp	.L16
	.p2align 4,,10
	.p2align 3
.L6:
	movl	$0, 8(%eax)
	jmp	.L15
	.cfi_endproc
.LFE55:
	.size	bpmnode_create, .-bpmnode_create
	.section	.text.unlikely
.LCOLDE0:
	.text
.LHOTE0:
	.section	.text.unlikely
.LCOLDB1:
	.text
.LHOTB1:
	.p2align 4,,15
	.type	boundaryPM, @function
boundaryPM:
.LFB57:
	.cfi_startproc
	pushl	%ebp
	.cfi_def_cfa_offset 8
	.cfi_offset 5, -8
	pushl	%edi
	.cfi_def_cfa_offset 12
	.cfi_offset 7, -12
	pushl	%esi
	.cfi_def_cfa_offset 16
	.cfi_offset 6, -16
	pushl	%ebx
	.cfi_def_cfa_offset 20
	.cfi_offset 3, -20
	movl	%eax, %esi
	subl	$28, %esp
	.cfi_def_cfa_offset 48
	movl	%edx, 12(%esp)
	movl	28(%eax), %edx
	movl	48(%esp), %eax
	movl	48(%esp), %edi
	movl	%ecx, 4(%esp)
	leal	0(,%eax,4), %ebx
	movl	(%edx,%eax,4), %eax
	testl	%edi, %edi
	movl	%eax, 8(%esp)
	movl	4(%eax), %ecx
	je	.L51
	movl	52(%esp), %edi
	movl	4(%esp), %ebp
	addl	$1, %edi
	leal	-2(%ebp,%ebp), %ebp
	movl	%edi, %eax
	leal	-4(%ebx), %edi
	cmpl	%ebp, %eax
	jge	.L59
	.p2align 4,,10
	.p2align 3
.L55:
	movl	24(%esi), %ebp
	movl	(%edx,%edi), %edx
	movl	0(%ebp,%edi), %eax
	movl	(%edx), %edx
	addl	(%eax), %edx
	cmpl	%ecx, 4(%esp)
	movl	8(%esp), %eax
	movl	%eax, 0(%ebp,%ebx)
	jbe	.L50
	movl	12(%esp), %ebp
	movl	%ecx, %eax
	sall	$4, %eax
	movl	0(%ebp,%eax), %eax
	cmpl	%eax, %edx
	jg	.L49
.L50:
	movl	28(%esi), %eax
	pushl	(%eax,%edi)
	.cfi_def_cfa_offset 52
	leal	(%eax,%ebx), %ebp
	movl	%esi, %eax
	subl	$4, %ebx
	subl	$4, %edi
	call	bpmnode_create
	subl	$1, 52(%esp)
	subl	$4, %esp
	.cfi_def_cfa_offset 56
	movl	%eax, 0(%ebp)
	pushl	60(%esp)
	.cfi_def_cfa_offset 60
	pushl	60(%esp)
	.cfi_def_cfa_offset 64
	movl	%esi, %eax
	movl	20(%esp), %ecx
	movl	28(%esp), %edx
	call	boundaryPM
	movl	28(%esi), %edx
	movl	(%edx,%ebx), %eax
	movl	%eax, 24(%esp)
	addl	$16, %esp
	.cfi_def_cfa_offset 48
	movl	4(%eax), %ecx
	movl	48(%esp), %eax
	testl	%eax, %eax
	jne	.L55
.L51:
	cmpl	4(%esp), %ecx
	jb	.L60
	addl	$28, %esp
	.cfi_remember_state
	.cfi_def_cfa_offset 20
	popl	%ebx
	.cfi_restore 3
	.cfi_def_cfa_offset 16
	popl	%esi
	.cfi_restore 6
	.cfi_def_cfa_offset 12
	popl	%edi
	.cfi_restore 7
	.cfi_def_cfa_offset 8
	popl	%ebp
	.cfi_restore 5
	.cfi_def_cfa_offset 4
	ret
.L59:
	.cfi_restore_state
	movl	24(%esi), %ebp
	movl	-4(%edx,%ebx), %edx
	movl	-4(%ebp,%ebx), %eax
	movl	(%edx), %edx
	addl	(%eax), %edx
	cmpl	%ecx, 4(%esp)
	movl	8(%esp), %eax
	movl	%eax, 0(%ebp,%ebx)
	jbe	.L48
	movl	12(%esp), %ebp
	movl	%ecx, %eax
	sall	$4, %eax
	movl	0(%ebp,%eax), %eax
	cmpl	%eax, %edx
	jg	.L49
.L48:
	movl	28(%esi), %eax
	pushl	(%eax,%edi)
	.cfi_def_cfa_offset 52
	addl	%eax, %ebx
	movl	%esi, %eax
	call	bpmnode_create
	movl	%eax, (%ebx)
	popl	%ecx
	.cfi_def_cfa_offset 48
	addl	$28, %esp
	.cfi_remember_state
	.cfi_def_cfa_offset 20
	popl	%ebx
	.cfi_restore 3
	.cfi_def_cfa_offset 16
	popl	%esi
	.cfi_restore 6
	.cfi_def_cfa_offset 12
	popl	%edi
	.cfi_restore 7
	.cfi_def_cfa_offset 8
	popl	%ebp
	.cfi_restore 5
	.cfi_def_cfa_offset 4
	ret
	.p2align 4,,10
	.p2align 3
.L49:
	.cfi_restore_state
	addl	28(%esi), %ebx
	addl	$1, %ecx
	movl	(%ebx), %edx
	pushl	8(%edx)
	.cfi_def_cfa_offset 52
	movl	%eax, %edx
	movl	%esi, %eax
	call	bpmnode_create
	movl	%eax, (%ebx)
	popl	%edx
	.cfi_def_cfa_offset 48
	addl	$28, %esp
	.cfi_remember_state
	.cfi_def_cfa_offset 20
	popl	%ebx
	.cfi_restore 3
	.cfi_def_cfa_offset 16
	popl	%esi
	.cfi_restore 6
	.cfi_def_cfa_offset 12
	popl	%edi
	.cfi_restore 7
	.cfi_def_cfa_offset 8
	popl	%ebp
	.cfi_restore 5
	.cfi_def_cfa_offset 4
	ret
.L60:
	.cfi_restore_state
	movl	8(%esp), %eax
	movl	24(%esi), %edx
	movl	%eax, (%edx,%ebx)
	pushl	$0
	.cfi_def_cfa_offset 52
	leal	1(%ecx), %edx
	movl	16(%esp), %edi
	movl	%ecx, %eax
	addl	28(%esi), %ebx
	sall	$4, %eax
	movl	%edx, %ecx
	movl	(%edi,%eax), %edx
	movl	%esi, %eax
	call	bpmnode_create
	movl	%eax, (%ebx)
	popl	%ebx
	.cfi_def_cfa_offset 48
	addl	$28, %esp
	.cfi_def_cfa_offset 20
	popl	%ebx
	.cfi_restore 3
	.cfi_def_cfa_offset 16
	popl	%esi
	.cfi_restore 6
	.cfi_def_cfa_offset 12
	popl	%edi
	.cfi_restore 7
	.cfi_def_cfa_offset 8
	popl	%ebp
	.cfi_restore 5
	.cfi_def_cfa_offset 4
	ret
	.cfi_endproc
.LFE57:
	.size	boundaryPM, .-boundaryPM
	.section	.text.unlikely
.LCOLDE1:
	.text
.LHOTE1:
	.section	.text.unlikely
.LCOLDB2:
	.text
.LHOTB2:
	.p2align 4,,15
	.type	checkColorValidity, @function
checkColorValidity:
.LFB115:
	.cfi_startproc
	cmpl	$6, %eax
	ja	.L69
	jmp	*.L64(,%eax,4)
	.section	.rodata
	.align 4
	.align 4
.L64:
	.long	.L63
	.long	.L69
	.long	.L68
	.long	.L66
	.long	.L68
	.long	.L69
	.long	.L68
	.text
	.p2align 4,,10
	.p2align 3
.L68:
	leal	-8(%edx), %eax
	andl	$-9, %eax
	je	.L62
.L94:
	movl	$37, %eax
	ret
	.p2align 4,,10
	.p2align 3
.L66:
	leal	-4(%edx), %eax
	andl	$-5, %eax
	je	.L72
	subl	$1, %edx
	cmpl	$1, %edx
	ja	.L94
	.p2align 4,,10
	.p2align 3
.L72:
	xorl	%eax, %eax
.L62:
	rep ret
	.p2align 4,,10
	.p2align 3
.L63:
	leal	-4(%edx), %eax
	andl	$-5, %eax
	je	.L72
	leal	-1(%edx), %eax
	cmpl	$1, %eax
	jbe	.L72
	xorl	%eax, %eax
	cmpl	$16, %edx
	sete	%al
	subl	$1, %eax
	andl	$37, %eax
	ret
	.p2align 4,,10
	.p2align 3
.L69:
	movl	$31, %eax
	ret
	.cfi_endproc
.LFE115:
	.size	checkColorValidity, .-checkColorValidity
	.section	.text.unlikely
.LCOLDE2:
	.text
.LHOTE2:
	.section	.text.unlikely
.LCOLDB3:
	.text
.LHOTB3:
	.p2align 4,,15
	.type	getPixelColorsRGBA8, @function
getPixelColorsRGBA8:
.LFB160:
	.cfi_startproc
	pushl	%ebp
	.cfi_def_cfa_offset 8
	.cfi_offset 5, -8
	pushl	%edi
	.cfi_def_cfa_offset 12
	.cfi_offset 7, -12
	movl	%eax, %edi
	pushl	%esi
	.cfi_def_cfa_offset 16
	.cfi_offset 6, -16
	pushl	%ebx
	.cfi_def_cfa_offset 20
	.cfi_offset 3, -20
	subl	$20, %esp
	.cfi_def_cfa_offset 40
	cmpl	$1, %ecx
	sbbl	%eax, %eax
	movl	%edx, 12(%esp)
	movl	%ecx, 8(%esp)
	addl	$4, %eax
	movl	40(%esp), %esi
	movl	%eax, 4(%esp)
	movl	44(%esp), %eax
	movl	(%eax), %eax
	testl	%eax, %eax
	jne	.L99
	movl	44(%esp), %eax
	movl	4(%eax), %ecx
	cmpl	$8, %ecx
	je	.L214
	cmpl	$16, %ecx
	je	.L215
	movl	$1, %eax
	sall	%cl, %eax
	subl	$1, %eax
	movl	%eax, 16(%esp)
	movl	12(%esp), %eax
	testl	%eax, %eax
	je	.L97
	movl	%ecx, %edx
	xorl	%ebx, %ebx
	movl	$0, (%esp)
	testl	%edx, %edx
	je	.L159
	.p2align 4,,10
	.p2align 3
.L216:
	xorl	%ecx, %ecx
	addl	%ebx, %edx
	movl	%ecx, %ebp
	.p2align 4,,10
	.p2align 3
.L113:
	movl	%ebx, %eax
	movl	%ebx, %ecx
	addl	%ebp, %ebp
	shrl	$3, %eax
	notl	%ecx
	addl	$1, %ebx
	movzbl	(%esi,%eax), %eax
	andl	$7, %ecx
	sarl	%cl, %eax
	andl	$1, %eax
	orl	%eax, %ebp
	cmpl	%edx, %ebx
	jne	.L113
	movl	%ebp, %eax
	movl	%ebp, %ecx
	sall	$8, %eax
	subl	%ebp, %eax
.L112:
	xorl	%edx, %edx
	divl	16(%esp)
	movb	%al, 2(%edi)
	movb	%al, 1(%edi)
	movb	%al, (%edi)
	movl	8(%esp), %eax
	testl	%eax, %eax
	je	.L114
	movl	44(%esp), %edx
	movl	$-1, %eax
	movl	16(%edx), %ebp
	testl	%ebp, %ebp
	je	.L115
	cmpl	%ecx, 20(%edx)
	setne	%al
	negl	%eax
.L115:
	movb	%al, 3(%edi)
.L114:
	addl	$1, (%esp)
	addl	4(%esp), %edi
	movl	(%esp), %eax
	cmpl	12(%esp), %eax
	je	.L97
	movl	44(%esp), %eax
	movl	4(%eax), %edx
	testl	%edx, %edx
	jne	.L216
.L159:
	xorl	%eax, %eax
	xorl	%ecx, %ecx
	jmp	.L112
	.p2align 4,,10
	.p2align 3
.L99:
	cmpl	$2, %eax
	je	.L217
	cmpl	$3, %eax
	je	.L218
	cmpl	$4, %eax
	je	.L219
	cmpl	$6, %eax
	jne	.L97
	movl	44(%esp), %eax
	cmpl	$8, 4(%eax)
	je	.L148
	movl	12(%esp), %eax
	testl	%eax, %eax
	je	.L97
	movl	12(%esp), %eax
	movl	4(%esp), %ecx
	leal	(%esi,%eax,8), %edx
	movl	8(%esp), %eax
	testl	%eax, %eax
	jne	.L155
.L154:
	movzbl	(%esi), %eax
	addl	$8, %esi
	movb	%al, (%edi)
	movzbl	-6(%esi), %eax
	movb	%al, 1(%edi)
	movzbl	-4(%esi), %eax
	movb	%al, 2(%edi)
	addl	%ecx, %edi
	cmpl	%edx, %esi
	jne	.L154
	.p2align 4,,10
	.p2align 3
.L97:
	addl	$20, %esp
	.cfi_remember_state
	.cfi_def_cfa_offset 20
	popl	%ebx
	.cfi_restore 3
	.cfi_def_cfa_offset 16
	popl	%esi
	.cfi_restore 6
	.cfi_def_cfa_offset 12
	popl	%edi
	.cfi_restore 7
	.cfi_def_cfa_offset 8
	popl	%ebp
	.cfi_restore 5
	.cfi_def_cfa_offset 4
	ret
.L214:
	.cfi_restore_state
	testl	%edx, %edx
	je	.L97
	movl	8(%esp), %eax
	testl	%eax, %eax
	jne	.L102
	movl	4(%esp), %ecx
	addl	%esi, %edx
	.p2align 4,,10
	.p2align 3
.L103:
	movzbl	(%esi), %eax
	addl	$1, %esi
	movb	%al, 2(%edi)
	movb	%al, 1(%edi)
	movb	%al, (%edi)
	addl	%ecx, %edi
	cmpl	%edx, %esi
	jne	.L103
	jmp	.L97
.L217:
	movl	44(%esp), %eax
	cmpl	$8, 4(%eax)
	je	.L118
	movl	12(%esp), %ebx
	testl	%ebx, %ebx
	je	.L97
	movl	8(%esp), %ebx
	movl	12(%esp), %eax
	testl	%ebx, %ebx
	leal	(%eax,%eax,2), %eax
	je	.L220
	movl	44(%esp), %edx
	leal	(%esi,%eax,2), %ebx
	.p2align 4,,10
	.p2align 3
.L127:
	movzbl	(%esi), %eax
	movb	%al, (%edi)
	movzbl	2(%esi), %eax
	movb	%al, 1(%edi)
	movzbl	4(%esi), %eax
	movb	%al, 2(%edi)
	movl	16(%edx), %ecx
	movl	$-1, %eax
	testl	%ecx, %ecx
	je	.L126
	movzbl	(%esi), %ebp
	movzbl	1(%esi), %ecx
	sall	$8, %ebp
	addl	%ebp, %ecx
	cmpl	20(%edx), %ecx
	je	.L221
.L126:
	addl	$6, %esi
	movb	%al, 3(%edi)
	addl	4(%esp), %edi
	cmpl	%ebx, %esi
	jne	.L127
	jmp	.L97
.L219:
	movl	44(%esp), %eax
	cmpl	$8, 4(%eax)
	je	.L140
	movl	12(%esp), %eax
	testl	%eax, %eax
	je	.L97
	movl	12(%esp), %eax
	movl	4(%esp), %ecx
	leal	(%esi,%eax,4), %edx
	movl	8(%esp), %eax
	testl	%eax, %eax
	jne	.L147
.L146:
	movzbl	(%esi), %eax
	addl	$4, %esi
	movb	%al, 2(%edi)
	movb	%al, 1(%edi)
	movb	%al, (%edi)
	addl	%ecx, %edi
	cmpl	%edx, %esi
	jne	.L146
	jmp	.L97
.L218:
	movl	12(%esp), %eax
	testl	%eax, %eax
	je	.L97
	movl	44(%esp), %ebp
	addl	%esi, %eax
	xorl	%ebx, %ebx
	movl	%esi, (%esp)
	movl	%eax, 16(%esp)
	movl	%edi, 12(%esp)
	movl	4(%ebp), %edx
	cmpl	$8, %edx
	je	.L129
	.p2align 4,,10
	.p2align 3
.L222:
	xorl	%eax, %eax
	testl	%edx, %edx
	leal	(%ebx,%edx), %edi
	je	.L132
	.p2align 4,,10
	.p2align 3
.L183:
	movl	%ebx, %edx
	movl	%ebx, %ecx
	addl	%eax, %eax
	shrl	$3, %edx
	notl	%ecx
	addl	$1, %ebx
	movzbl	(%esi,%edx), %edx
	andl	$7, %ecx
	sarl	%cl, %edx
	andl	$1, %edx
	orl	%edx, %eax
	cmpl	%edi, %ebx
	jne	.L183
.L132:
	cmpl	12(%ebp), %eax
	jb	.L134
.L223:
	movl	8(%esp), %edx
	movl	12(%esp), %eax
	testl	%edx, %edx
	movb	$0, 2(%eax)
	movb	$0, 1(%eax)
	movb	$0, (%eax)
	je	.L136
	movb	$-1, 3(%eax)
.L136:
	addl	$1, (%esp)
	movl	4(%esp), %edi
	movl	(%esp), %eax
	addl	%edi, 12(%esp)
	cmpl	16(%esp), %eax
	je	.L97
	movl	4(%ebp), %edx
	cmpl	$8, %edx
	jne	.L222
.L129:
	movl	(%esp), %eax
	movzbl	(%eax), %eax
	cmpl	12(%ebp), %eax
	jnb	.L223
.L134:
	movl	8(%ebp), %ecx
	leal	0(,%eax,4), %edx
	movl	12(%esp), %edi
	movzbl	(%ecx,%eax,4), %eax
	movb	%al, (%edi)
	movl	8(%ebp), %eax
	movzbl	1(%eax,%edx), %eax
	movb	%al, 1(%edi)
	movl	8(%ebp), %eax
	movzbl	2(%eax,%edx), %eax
	movb	%al, 2(%edi)
	movl	8(%esp), %eax
	testl	%eax, %eax
	je	.L136
	movl	8(%ebp), %eax
	movzbl	3(%eax,%edx), %eax
	movb	%al, 3(%edi)
	jmp	.L136
.L215:
	movl	12(%esp), %eax
	testl	%eax, %eax
	je	.L97
	movl	12(%esp), %eax
	leal	(%esi,%eax,2), %edx
	movl	8(%esp), %eax
	testl	%eax, %eax
	je	.L224
	movl	4(%esp), %ebx
	movl	44(%esp), %ecx
	.p2align 4,,10
	.p2align 3
.L111:
	movzbl	(%esi), %eax
	movb	%al, 2(%edi)
	movb	%al, 1(%edi)
	movb	%al, (%edi)
	movl	16(%ecx), %ebp
	movl	$-1, %eax
	testl	%ebp, %ebp
	je	.L110
	movzbl	(%esi), %eax
	sall	$8, %eax
	movl	%eax, %ebp
	movzbl	1(%esi), %eax
	addl	%ebp, %eax
	cmpl	20(%ecx), %eax
	setne	%al
	negl	%eax
.L110:
	addl	$2, %esi
	movb	%al, 3(%edi)
	addl	%ebx, %edi
	cmpl	%edx, %esi
	jne	.L111
	jmp	.L97
.L102:
	movl	12(%esp), %edx
	movl	4(%esp), %ebx
	movl	44(%esp), %ecx
	addl	%esi, %edx
	.p2align 4,,10
	.p2align 3
.L106:
	movzbl	(%esi), %eax
	movb	%al, 2(%edi)
	movb	%al, 1(%edi)
	movb	%al, (%edi)
	movl	16(%ecx), %ebp
	movl	$-1, %eax
	testl	%ebp, %ebp
	je	.L105
	movzbl	(%esi), %eax
	cmpl	20(%ecx), %eax
	setne	%al
	negl	%eax
.L105:
	addl	$1, %esi
	movb	%al, 3(%edi)
	addl	%ebx, %edi
	cmpl	%edx, %esi
	jne	.L106
	jmp	.L97
.L224:
	movl	4(%esp), %ecx
	.p2align 4,,10
	.p2align 3
.L109:
	movzbl	(%esi), %eax
	addl	$2, %esi
	movb	%al, 2(%edi)
	movb	%al, 1(%edi)
	movb	%al, (%edi)
	addl	%ecx, %edi
	cmpl	%edx, %esi
	jne	.L109
	jmp	.L97
.L147:
	movzbl	(%esi), %eax
	addl	$4, %esi
	movb	%al, 2(%edi)
	movb	%al, 1(%edi)
	movb	%al, (%edi)
	movzbl	-2(%esi), %eax
	movb	%al, 3(%edi)
	addl	%ecx, %edi
	cmpl	%edx, %esi
	jne	.L147
	jmp	.L97
.L220:
	movl	4(%esp), %ecx
	leal	(%esi,%eax,2), %edx
	.p2align 4,,10
	.p2align 3
.L125:
	movzbl	(%esi), %eax
	addl	$6, %esi
	movb	%al, (%edi)
	movzbl	-4(%esi), %eax
	movb	%al, 1(%edi)
	movzbl	-2(%esi), %eax
	movb	%al, 2(%edi)
	addl	%ecx, %edi
	cmpl	%edx, %esi
	jne	.L125
	jmp	.L97
.L155:
	movzbl	(%esi), %eax
	addl	$8, %esi
	movb	%al, (%edi)
	movzbl	-6(%esi), %eax
	movb	%al, 1(%edi)
	movzbl	-4(%esi), %eax
	movb	%al, 2(%edi)
	movzbl	-2(%esi), %eax
	movb	%al, 3(%edi)
	addl	%ecx, %edi
	cmpl	%edx, %esi
	jne	.L155
	jmp	.L97
.L118:
	movl	12(%esp), %ecx
	testl	%ecx, %ecx
	je	.L97
	movl	8(%esp), %edx
	movl	12(%esp), %eax
	testl	%edx, %edx
	jne	.L120
	leal	(%eax,%eax,2), %edx
	movl	4(%esp), %ecx
	addl	%esi, %edx
.L121:
	movzbl	(%esi), %eax
	addl	$3, %esi
	movb	%al, (%edi)
	movzbl	-2(%esi), %eax
	movb	%al, 1(%edi)
	movzbl	-1(%esi), %eax
	movb	%al, 2(%edi)
	addl	%ecx, %edi
	cmpl	%edx, %esi
	jne	.L121
	jmp	.L97
.L221:
	movzbl	2(%esi), %ebp
	movzbl	3(%esi), %ecx
	sall	$8, %ebp
	addl	%ebp, %ecx
	cmpl	24(%edx), %ecx
	jne	.L126
	movzbl	4(%esi), %eax
	sall	$8, %eax
	movl	%eax, %ecx
	movzbl	5(%esi), %eax
	addl	%ecx, %eax
	cmpl	28(%edx), %eax
	setne	%al
	negl	%eax
	jmp	.L126
.L140:
	movl	12(%esp), %eax
	testl	%eax, %eax
	je	.L97
	movl	12(%esp), %eax
	movl	4(%esp), %ecx
	leal	(%esi,%eax,2), %edx
	movl	8(%esp), %eax
	testl	%eax, %eax
	jne	.L144
.L143:
	movzbl	(%esi), %eax
	addl	$2, %esi
	movb	%al, 2(%edi)
	movb	%al, 1(%edi)
	movb	%al, (%edi)
	addl	%ecx, %edi
	cmpl	%edx, %esi
	jne	.L143
	jmp	.L97
	.p2align 4,,10
	.p2align 3
.L144:
	movzbl	(%esi), %eax
	addl	$2, %esi
	movb	%al, 2(%edi)
	movb	%al, 1(%edi)
	movb	%al, (%edi)
	movzbl	-1(%esi), %eax
	movb	%al, 3(%edi)
	addl	%ecx, %edi
	cmpl	%edx, %esi
	jne	.L144
	jmp	.L97
.L120:
	leal	(%eax,%eax,2), %ebp
	addl	%esi, %ebp
	movl	%ebp, (%esp)
	movl	44(%esp), %ebp
.L123:
	movzbl	(%esi), %ecx
	movl	$-1, %ebx
	movb	%cl, (%edi)
	movzbl	1(%esi), %edx
	movb	%dl, 1(%edi)
	movzbl	2(%esi), %eax
	movb	%al, 2(%edi)
	cmpl	$0, 16(%ebp)
	je	.L122
	cmpl	20(%ebp), %ecx
	je	.L225
.L122:
	movb	%bl, 3(%edi)
	addl	$3, %esi
	addl	4(%esp), %edi
	cmpl	(%esp), %esi
	jne	.L123
	jmp	.L97
.L148:
	movl	12(%esp), %ebp
	testl	%ebp, %ebp
	je	.L97
	movl	8(%esp), %ebx
	movl	12(%esp), %eax
	movl	4(%esp), %ecx
	testl	%ebx, %ebx
	leal	(%esi,%eax,4), %edx
	jne	.L152
.L151:
	movzbl	(%esi), %eax
	addl	$4, %esi
	movb	%al, (%edi)
	movzbl	-3(%esi), %eax
	movb	%al, 1(%edi)
	movzbl	-2(%esi), %eax
	movb	%al, 2(%edi)
	addl	%ecx, %edi
	cmpl	%edx, %esi
	jne	.L151
	jmp	.L97
	.p2align 4,,10
	.p2align 3
.L152:
	movzbl	(%esi), %eax
	addl	$4, %esi
	movb	%al, (%edi)
	movzbl	-3(%esi), %eax
	movb	%al, 1(%edi)
	movzbl	-2(%esi), %eax
	movb	%al, 2(%edi)
	movzbl	-1(%esi), %eax
	movb	%al, 3(%edi)
	addl	%ecx, %edi
	cmpl	%edx, %esi
	jne	.L152
	jmp	.L97
.L225:
	cmpl	24(%ebp), %edx
	jne	.L122
	cmpl	28(%ebp), %eax
	setne	%bl
	negl	%ebx
	jmp	.L122
	.cfi_endproc
.LFE160:
	.size	getPixelColorsRGBA8, .-getPixelColorsRGBA8
	.section	.text.unlikely
.LCOLDE3:
	.text
.LHOTE3:
	.section	.text.unlikely
.LCOLDB4:
	.text
.LHOTB4:
	.p2align 4,,15
	.type	getPixelColorRGBA16, @function
getPixelColorRGBA16:
.LFB161:
	.cfi_startproc
	pushl	%ebp
	.cfi_def_cfa_offset 8
	.cfi_offset 5, -8
	pushl	%edi
	.cfi_def_cfa_offset 12
	.cfi_offset 7, -12
	pushl	%esi
	.cfi_def_cfa_offset 16
	.cfi_offset 6, -16
	pushl	%ebx
	.cfi_def_cfa_offset 20
	.cfi_offset 3, -20
	subl	$12, %esp
	.cfi_def_cfa_offset 32
	movl	44(%esp), %edi
	movl	36(%esp), %ebx
	movl	40(%esp), %esi
	movl	(%edi), %edi
	testl	%edi, %edi
	jne	.L227
	leal	(%esi,%esi), %edi
	leal	(%ebx,%edi), %esi
	leal	1(%ebx,%edi), %edi
	movzbl	(%esi), %ebx
	movzbl	(%edi), %ebp
	sall	$8, %ebx
	addl	%ebp, %ebx
	movw	%bx, (%ecx)
	movw	%bx, (%edx)
	movw	%bx, (%eax)
	movl	44(%esp), %eax
	movl	16(%eax), %ebx
	testl	%ebx, %ebx
	je	.L228
	movl	%eax, %ecx
	movzbl	(%esi), %eax
	movzbl	(%edi), %edx
	sall	$8, %eax
	addl	%edx, %eax
	cmpl	20(%ecx), %eax
	je	.L231
.L228:
	movl	32(%esp), %eax
	movl	$-1, %edx
	movw	%dx, (%eax)
.L226:
	addl	$12, %esp
	.cfi_remember_state
	.cfi_def_cfa_offset 20
	popl	%ebx
	.cfi_restore 3
	.cfi_def_cfa_offset 16
	popl	%esi
	.cfi_restore 6
	.cfi_def_cfa_offset 12
	popl	%edi
	.cfi_restore 7
	.cfi_def_cfa_offset 8
	popl	%ebp
	.cfi_restore 5
	.cfi_def_cfa_offset 4
	ret
	.p2align 4,,10
	.p2align 3
.L227:
	.cfi_restore_state
	cmpl	$2, %edi
	je	.L234
	cmpl	$4, %edi
	je	.L235
	cmpl	$6, %edi
	jne	.L226
	leal	0(,%esi,8), %edi
	movzbl	(%ebx,%esi,8), %esi
	movzbl	1(%ebx,%edi), %ebp
	sall	$8, %esi
	addl	%ebp, %esi
	movw	%si, (%eax)
	movzbl	2(%ebx,%edi), %eax
	movzbl	3(%ebx,%edi), %esi
	sall	$8, %eax
	addl	%esi, %eax
	movw	%ax, (%edx)
	movzbl	4(%ebx,%edi), %eax
	movzbl	5(%ebx,%edi), %edx
	sall	$8, %eax
	addl	%edx, %eax
	movw	%ax, (%ecx)
	movzbl	6(%ebx,%edi), %eax
	movzbl	7(%ebx,%edi), %edx
	movl	32(%esp), %ecx
	sall	$8, %eax
	addl	%edx, %eax
	movw	%ax, (%ecx)
	addl	$12, %esp
	.cfi_remember_state
	.cfi_def_cfa_offset 20
	popl	%ebx
	.cfi_restore 3
	.cfi_def_cfa_offset 16
	popl	%esi
	.cfi_restore 6
	.cfi_def_cfa_offset 12
	popl	%edi
	.cfi_restore 7
	.cfi_def_cfa_offset 8
	popl	%ebp
	.cfi_restore 5
	.cfi_def_cfa_offset 4
	ret
	.p2align 4,,10
	.p2align 3
.L234:
	.cfi_restore_state
	leal	(%esi,%esi,2), %esi
	addl	%esi, %esi
	leal	(%ebx,%esi), %edi
	leal	1(%ebx,%esi), %ebp
	movl	%edi, (%esp)
	movzbl	(%edi), %edi
	movl	%ebp, 4(%esp)
	movzbl	0(%ebp), %ebp
	sall	$8, %edi
	addl	%ebp, %edi
	leal	3(%ebx,%esi), %ebp
	movw	%di, (%eax)
	leal	2(%ebx,%esi), %eax
	movzbl	(%eax), %edi
	movl	%eax, 8(%esp)
	movzbl	0(%ebp), %eax
	sall	$8, %edi
	addl	%edi, %eax
	movw	%ax, (%edx)
	leal	4(%ebx,%esi), %edx
	leal	5(%ebx,%esi), %esi
	movzbl	(%edx), %ebx
	movzbl	(%esi), %eax
	sall	$8, %ebx
	addl	%ebx, %eax
	movw	%ax, (%ecx)
	movl	44(%esp), %ecx
	movl	16(%ecx), %eax
	testl	%eax, %eax
	je	.L228
	movl	4(%esp), %eax
	movl	(%esp), %edi
	movzbl	(%eax), %ecx
	movzbl	(%edi), %eax
	sall	$8, %eax
	addl	%ecx, %eax
	movl	44(%esp), %ecx
	cmpl	20(%ecx), %eax
	jne	.L228
	movl	8(%esp), %eax
	movzbl	0(%ebp), %ecx
	movzbl	(%eax), %eax
	sall	$8, %eax
	addl	%ecx, %eax
	movl	44(%esp), %ecx
	cmpl	24(%ecx), %eax
	jne	.L228
	movzbl	(%edx), %eax
	sall	$8, %eax
	movl	%eax, %edx
	movzbl	(%esi), %eax
	addl	%edx, %eax
	cmpl	28(%ecx), %eax
	jne	.L228
	.p2align 4,,10
	.p2align 3
.L231:
	movl	32(%esp), %eax
	xorl	%ecx, %ecx
	movw	%cx, (%eax)
	jmp	.L226
	.p2align 4,,10
	.p2align 3
.L235:
	leal	0(,%esi,4), %edi
	movzbl	(%ebx,%esi,4), %esi
	movzbl	1(%ebx,%edi), %ebp
	sall	$8, %esi
	addl	%ebp, %esi
	movw	%si, (%ecx)
	movw	%si, (%edx)
	movw	%si, (%eax)
	movzbl	2(%ebx,%edi), %eax
	movzbl	3(%ebx,%edi), %edx
	sall	$8, %eax
	addl	%edx, %eax
	movl	32(%esp), %edx
	movw	%ax, (%edx)
	jmp	.L226
	.cfi_endproc
.LFE161:
	.size	getPixelColorRGBA16, .-getPixelColorRGBA16
	.section	.text.unlikely
.LCOLDE4:
	.text
.LHOTE4:
	.section	.text.unlikely
.LCOLDB5:
	.text
.LHOTB5:
	.p2align 4,,15
	.type	Adam7_getpassvalues, @function
Adam7_getpassvalues:
.LFB168:
	.cfi_startproc
	pushl	%ebp
	.cfi_def_cfa_offset 8
	.cfi_offset 5, -8
	pushl	%edi
	.cfi_def_cfa_offset 12
	.cfi_offset 7, -12
	pushl	%esi
	.cfi_def_cfa_offset 16
	.cfi_offset 6, -16
	pushl	%ebx
	.cfi_def_cfa_offset 20
	.cfi_offset 3, -20
	movl	28(%esp), %ebp
	leal	7(%ebp), %ebx
	shrl	$3, %ebx
	movl	%ebx, (%eax)
	movl	32(%esp), %ebx
	addl	$7, %ebx
	shrl	$3, %ebx
	movl	%ebx, (%edx)
	movl	(%eax), %esi
	testl	%esi, %esi
	jne	.L237
	movl	$0, (%edx)
.L238:
	movl	%esi, (%eax)
	leal	3(%ebp), %esi
	movl	%esi, %edi
	shrl	$3, %edi
	movl	%edi, 4(%eax)
	movl	%ebx, 4(%edx)
	movl	4(%eax), %edi
	testl	%edi, %edi
	jne	.L239
	movl	$0, 4(%edx)
.L240:
	movl	32(%esp), %ebx
	movl	%edi, 4(%eax)
	shrl	$2, %esi
	movl	%esi, 8(%eax)
	addl	$3, %ebx
	movl	%ebx, %edi
	shrl	$3, %edi
	movl	%edi, 8(%edx)
	movl	8(%eax), %esi
	testl	%esi, %esi
	jne	.L241
	movl	$0, 8(%edx)
.L242:
	movl	%esi, 8(%eax)
	leal	1(%ebp), %esi
	shrl	$2, %ebx
	movl	%esi, %edi
	shrl	$2, %edi
	movl	%edi, 12(%eax)
	movl	%ebx, 12(%edx)
	movl	12(%eax), %edi
	testl	%edi, %edi
	jne	.L243
	movl	$0, 12(%edx)
.L244:
	movl	32(%esp), %ebx
	movl	%edi, 12(%eax)
	shrl	%esi
	movl	%esi, 16(%eax)
	addl	$1, %ebx
	movl	%ebx, %edi
	shrl	$2, %edi
	movl	%edi, 16(%edx)
	movl	16(%eax), %esi
	testl	%esi, %esi
	jne	.L245
	movl	$0, 16(%edx)
.L246:
	movl	%esi, 16(%eax)
	movl	%ebp, %esi
	shrl	%ebx
	shrl	%esi
	movl	%esi, 20(%eax)
	movl	%ebx, 20(%edx)
	movl	20(%eax), %esi
	testl	%esi, %esi
	jne	.L247
	movl	$0, 20(%edx)
.L248:
	movl	32(%esp), %ebx
	movl	%esi, 20(%eax)
	movl	%ebp, 24(%eax)
	shrl	%ebx
	movl	%ebx, 24(%edx)
	movl	24(%eax), %esi
	testl	%esi, %esi
	je	.L249
	cmpl	$1, %ebx
	sbbl	%ebx, %ebx
	notl	%ebx
	andl	%ebx, %esi
.L250:
	movl	20(%esp), %ebx
	movl	24(%esp), %edi
	movl	%esi, 24(%eax)
	movl	$0, (%edi)
	movl	$0, (%ebx)
	xorl	%ebx, %ebx
	movl	$0, (%ecx)
	.p2align 4,,10
	.p2align 3
.L253:
	addl	$1, %ebx
	xorl	%ebp, %ebp
	movl	-4(%eax,%ebx,4), %esi
	movl	-4(%ecx,%ebx,4), %edi
	testl	%esi, %esi
	je	.L252
	movl	(%edx), %ebp
	testl	%ebp, %ebp
	je	.L252
	imull	36(%esp), %esi
	addl	$7, %esi
	shrl	$3, %esi
	addl	$1, %esi
	imull	%esi, %ebp
.L252:
	addl	%ebp, %edi
	movl	36(%esp), %esi
	addl	$4, %edx
	movl	%edi, (%ecx,%ebx,4)
	movl	20(%esp), %edi
	imull	-4(%eax,%ebx,4), %esi
	addl	$7, %esi
	shrl	$3, %esi
	imull	-4(%edx), %esi
	addl	-4(%edi,%ebx,4), %esi
	movl	%esi, (%edi,%ebx,4)
	movl	36(%esp), %esi
	imull	-4(%eax,%ebx,4), %esi
	movl	24(%esp), %edi
	imull	-4(%edx), %esi
	addl	$7, %esi
	shrl	$3, %esi
	addl	-4(%edi,%ebx,4), %esi
	cmpl	$7, %ebx
	movl	%esi, (%edi,%ebx,4)
	jne	.L253
	popl	%ebx
	.cfi_remember_state
	.cfi_restore 3
	.cfi_def_cfa_offset 16
	popl	%esi
	.cfi_restore 6
	.cfi_def_cfa_offset 12
	popl	%edi
	.cfi_restore 7
	.cfi_def_cfa_offset 8
	popl	%ebp
	.cfi_restore 5
	.cfi_def_cfa_offset 4
	ret
	.p2align 4,,10
	.p2align 3
.L249:
	.cfi_restore_state
	movl	$0, 24(%edx)
	jmp	.L250
	.p2align 4,,10
	.p2align 3
.L247:
	cmpl	$1, %ebx
	sbbl	%ebx, %ebx
	notl	%ebx
	andl	%ebx, %esi
	jmp	.L248
	.p2align 4,,10
	.p2align 3
.L245:
	cmpl	$1, %edi
	sbbl	%edi, %edi
	notl	%edi
	andl	%edi, %esi
	jmp	.L246
	.p2align 4,,10
	.p2align 3
.L243:
	cmpl	$1, %ebx
	sbbl	%ebx, %ebx
	notl	%ebx
	andl	%ebx, %edi
	jmp	.L244
	.p2align 4,,10
	.p2align 3
.L241:
	cmpl	$1, %edi
	sbbl	%edi, %edi
	notl	%edi
	andl	%edi, %esi
	jmp	.L242
	.p2align 4,,10
	.p2align 3
.L239:
	cmpl	$1, %ebx
	sbbl	%ebx, %ebx
	notl	%ebx
	andl	%ebx, %edi
	jmp	.L240
	.p2align 4,,10
	.p2align 3
.L237:
	cmpl	$1, %ebx
	sbbl	%edi, %edi
	notl	%edi
	andl	%edi, %esi
	jmp	.L238
	.cfi_endproc
.LFE168:
	.size	Adam7_getpassvalues, .-Adam7_getpassvalues
	.section	.text.unlikely
.LCOLDE5:
	.text
.LHOTE5:
	.section	.text.unlikely
.LCOLDB6:
	.text
.LHOTB6:
	.p2align 4,,15
	.type	unfilter, @function
unfilter:
.LFB171:
	.cfi_startproc
	pushl	%ebp
	.cfi_def_cfa_offset 8
	.cfi_offset 5, -8
	pushl	%edi
	.cfi_def_cfa_offset 12
	.cfi_offset 7, -12
	pushl	%esi
	.cfi_def_cfa_offset 16
	.cfi_offset 6, -16
	pushl	%ebx
	.cfi_def_cfa_offset 20
	.cfi_offset 3, -20
	movl	%edx, %ebx
	subl	$176, %esp
	.cfi_def_cfa_offset 196
	movl	%eax, 28(%esp)
	movl	200(%esp), %eax
	leal	7(%eax), %edx
	imull	%ecx, %eax
	movl	%edx, %edi
	shrl	$3, %edi
	movl	%edi, %esi
	movl	%edi, 60(%esp)
	movl	196(%esp), %edi
	addl	$7, %eax
	shrl	$3, %eax
	testl	%edi, %edi
	movl	%eax, %ebp
	movl	%eax, (%esp)
	je	.L263
	movl	%eax, %edi
	movl	%esi, %ecx
	negl	%esi
	addl	$1, %edi
	movl	%ebx, %edx
	movl	%esi, 160(%esp)
	movl	%edi, 68(%esp)
	movl	%ebx, %edi
	movl	%esi, %ebx
	movl	28(%esp), %esi
	movl	%ebp, %eax
	addl	$1, %edi
	subl	$4, %eax
	movl	%edx, 76(%esp)
	movl	$0, 16(%esp)
	shrl	$2, %eax
	addl	%ebx, %esi
	leal	5(%edx), %ebx
	movl	%ebp, %edx
	movl	%esi, 20(%esp)
	movl	28(%esp), %esi
	movl	%ebx, 56(%esp)
	leal	4(%esi), %ebx
	movl	%ebx, 36(%esp)
	leal	1(%eax), %ebx
	movl	%ebx, 92(%esp)
	sall	$2, %ebx
	movl	%ebx, %esi
	movl	%ebx, 152(%esp)
	leal	-1(%ebp), %ebx
	cmpl	$3, %ebx
	movl	%ebx, %ebp
	movl	%ebx, 100(%esp)
	sbbl	%eax, %eax
	notl	%eax
	andl	%esi, %eax
	movl	%edx, %esi
	movl	%eax, %ebx
	movl	%eax, 120(%esp)
	leal	1(%eax), %eax
	addl	$2, %ebx
	movl	%eax, 116(%esp)
	leal	-4(%ecx), %eax
	movl	%ebx, 84(%esp)
	shrl	$2, %eax
	leal	1(%eax), %ebx
	leal	-1(%ecx), %eax
	movl	%ebx, 88(%esp)
	sall	$2, %ebx
	cmpl	$3, %eax
	movl	%eax, 96(%esp)
	sbbl	%eax, %eax
	movl	%ebx, 148(%esp)
	notl	%eax
	andl	%ebx, %eax
	movl	%eax, %ebx
	movl	%eax, 108(%esp)
	leal	1(%eax), %eax
	addl	$2, %ebx
	cmpl	$1, %ecx
	movl	%eax, 104(%esp)
	sbbl	%eax, %eax
	movl	%ebx, 80(%esp)
	notl	%eax
	movl	%ecx, %ebx
	andl	%ecx, %eax
	subl	%eax, %esi
	movl	%eax, %ecx
	movl	%eax, 72(%esp)
	movl	%esi, %edx
	movl	%esi, 168(%esp)
	movl	%eax, %esi
	leal	-4(%edx), %eax
	subl	%ebx, %esi
	cmpl	$6, %edx
	seta	127(%esp)
	movl	%esi, %ebx
	movl	%esi, 128(%esp)
	shrl	$2, %eax
	leal	1(%eax), %edx
	movl	%ecx, %eax
	movl	%edx, 112(%esp)
	sall	$2, %edx
	movl	%edx, %esi
	movl	%edx, 164(%esp)
	movl	%ebp, %edx
	subl	%ecx, %edx
	movl	28(%esp), %ebp
	movl	%edx, 156(%esp)
	movl	%esi, %edx
	xorl	%esi, %esi
	addl	%ecx, %edx
	movl	76(%esp), %ecx
	movl	%edx, 172(%esp)
	notl	%ecx
	movl	%ecx, 64(%esp)
	leal	1(%eax), %ecx
	movl	%ecx, 132(%esp)
	leal	4(%eax), %ecx
	addl	$5, %eax
	movl	%ecx, 136(%esp)
	leal	4(%ebx), %ecx
	movl	%eax, 144(%esp)
	movl	%ebp, %eax
	movl	%esi, %ebx
	movl	%edi, %ebp
	movl	%ecx, 140(%esp)
	movl	%eax, %edi
	.p2align 4,,10
	.p2align 3
.L355:
	movl	%edi, %ecx
	subl	28(%esp), %ecx
	cmpb	$4, -1(%ebp)
	movl	64(%esp), %eax
	movl	%edi, 32(%esp)
	leal	(%eax,%ebp), %esi
	ja	.L356
	movzbl	-1(%ebp), %eax
	jmp	*.L266(,%eax,4)
	.section	.rodata
	.align 4
	.align 4
.L266:
	.long	.L265
	.long	.L267
	.long	.L268
	.long	.L269
	.long	.L270
	.text
	.p2align 4,,10
	.p2align 3
.L269:
	testl	%ebx, %ebx
	je	.L483
	movl	60(%esp), %ecx
	testl	%ecx, %ecx
	je	.L315
	xorl	%eax, %eax
	.p2align 4,,10
	.p2align 3
.L316:
	movzbl	(%ebx,%eax), %edx
	shrb	%dl
	addb	0(%ebp,%eax), %dl
	movb	%dl, (%edi,%eax)
	addl	$1, %eax
	cmpl	%ecx, %eax
	jne	.L316
.L315:
	movl	72(%esp), %eax
	cmpl	%eax, (%esp)
	jbe	.L273
	movl	20(%esp), %esi
	movl	%eax, %ecx
	.p2align 4,,10
	.p2align 3
.L317:
	movzbl	(%esi,%ecx), %edx
	movzbl	(%ebx,%ecx), %eax
	addl	%edx, %eax
	sarl	%eax
	addb	0(%ebp,%ecx), %al
	movb	%al, (%edi,%ecx)
	addl	$1, %ecx
	cmpl	(%esp), %ecx
	jne	.L317
	jmp	.L273
	.p2align 4,,10
	.p2align 3
.L268:
	testl	%ebx, %ebx
	je	.L484
	movl	(%esp), %esi
	testl	%esi, %esi
	je	.L273
	cmpl	%ebp, 36(%esp)
	setbe	%dl
	cmpl	56(%esp), %edi
	setnb	%al
	orl	%eax, %edx
	leal	4(%ebx), %eax
	cmpl	%eax, %edi
	setnb	%cl
	cmpl	36(%esp), %ebx
	setnb	%al
	orl	%ecx, %eax
	andl	%eax, %edx
	cmpl	$6, %esi
	seta	%al
	testb	%al, %dl
	je	.L360
	movl	%edi, %eax
	orl	%ebp, %eax
	orl	%ebx, %eax
	testb	$3, %al
	jne	.L360
	cmpl	$2, 100(%esp)
	jbe	.L299
	xorl	%esi, %esi
.L300:
	movl	0(%ebp,%esi,4), %edx
	movl	(%ebx,%esi,4), %ecx
	movl	%edx, %eax
	andl	$2139062143, %ecx
	andl	$2139062143, %eax
	addl	%eax, %ecx
	movl	(%ebx,%esi,4), %eax
	xorl	%edx, %eax
	andl	$-2139062144, %eax
	xorl	%ecx, %eax
	movl	%eax, (%edi,%esi,4)
	addl	$1, %esi
	cmpl	%esi, 92(%esp)
	ja	.L300
	movl	152(%esp), %esi
	cmpl	%esi, (%esp)
	je	.L273
.L299:
	movl	120(%esp), %esi
	movl	(%esp), %ecx
	movzbl	(%ebx,%esi), %eax
	addb	0(%ebp,%esi), %al
	movb	%al, (%edi,%esi)
	movl	116(%esp), %esi
	cmpl	%esi, %ecx
	je	.L273
	movzbl	(%ebx,%esi), %eax
	addb	0(%ebp,%esi), %al
	movb	%al, (%edi,%esi)
	movl	84(%esp), %eax
	cmpl	%eax, %ecx
	je	.L273
	movl	%eax, %esi
	movzbl	(%ebx,%eax), %eax
	addb	0(%ebp,%esi), %al
	movb	%al, (%edi,%esi)
	jmp	.L273
	.p2align 4,,10
	.p2align 3
.L265:
	movl	(%esp), %esi
	testl	%esi, %esi
	je	.L273
	cmpl	36(%esp), %ebp
	setnb	%dl
	cmpl	56(%esp), %edi
	setnb	%al
	orl	%edx, %eax
	cmpl	$9, %esi
	seta	%dl
	testb	%dl, %al
	je	.L357
	movl	%edi, %eax
	orl	%ebp, %eax
	testb	$3, %al
	jne	.L357
	cmpl	$2, 100(%esp)
	jbe	.L275
	xorl	%eax, %eax
.L276:
	movl	0(%ebp,%eax,4), %edx
	movl	%edx, (%edi,%eax,4)
	addl	$1, %eax
	cmpl	92(%esp), %eax
	jb	.L276
	movl	152(%esp), %esi
	cmpl	%esi, (%esp)
	je	.L273
.L275:
	movl	120(%esp), %esi
	movl	(%esp), %ecx
	movzbl	0(%ebp,%esi), %eax
	movb	%al, (%edi,%esi)
	movl	116(%esp), %esi
	cmpl	%esi, %ecx
	je	.L273
	movzbl	0(%ebp,%esi), %eax
	movb	%al, (%edi,%esi)
	movl	84(%esp), %eax
	cmpl	%eax, %ecx
	je	.L273
.L310:
	movl	%eax, %esi
	movzbl	0(%ebp,%eax), %eax
	movb	%al, (%edi,%esi)
	.p2align 4,,10
	.p2align 3
.L273:
	movl	(%esp), %esi
	movl	68(%esp), %ebx
	addl	$1, 16(%esp)
	addl	%ebx, 56(%esp)
	movl	16(%esp), %eax
	addl	%ebx, %ebp
	addl	%esi, %edi
	addl	%esi, 20(%esp)
	addl	%esi, 36(%esp)
	cmpl	196(%esp), %eax
	movl	32(%esp), %ebx
	jne	.L355
.L263:
	xorl	%eax, %eax
.L472:
	addl	$176, %esp
	.cfi_remember_state
	.cfi_def_cfa_offset 20
	popl	%ebx
	.cfi_restore 3
	.cfi_def_cfa_offset 16
	popl	%esi
	.cfi_restore 6
	.cfi_def_cfa_offset 12
	popl	%edi
	.cfi_restore 7
	.cfi_def_cfa_offset 8
	popl	%ebp
	.cfi_restore 5
	.cfi_def_cfa_offset 4
	ret
	.p2align 4,,10
	.p2align 3
.L270:
	.cfi_restore_state
	testl	%ebx, %ebx
	je	.L485
	movl	60(%esp), %esi
	testl	%esi, %esi
	je	.L329
	cmpl	%ebp, 36(%esp)
	setbe	%dl
	cmpl	56(%esp), %edi
	setnb	%al
	orl	%eax, %edx
	leal	4(%ebx), %eax
	cmpl	%eax, %edi
	setnb	%cl
	cmpl	36(%esp), %ebx
	setnb	%al
	orl	%ecx, %eax
	andl	%eax, %edx
	cmpl	$6, %esi
	seta	%al
	testb	%al, %dl
	je	.L363
	movl	%edi, %eax
	orl	%ebp, %eax
	orl	%ebx, %eax
	testb	$3, %al
	jne	.L363
	cmpl	$2, 96(%esp)
	jbe	.L331
	xorl	%esi, %esi
.L332:
	movl	0(%ebp,%esi,4), %edx
	movl	(%ebx,%esi,4), %ecx
	movl	%edx, %eax
	andl	$2139062143, %ecx
	andl	$2139062143, %eax
	addl	%eax, %ecx
	movl	(%ebx,%esi,4), %eax
	xorl	%edx, %eax
	andl	$-2139062144, %eax
	xorl	%ecx, %eax
	movl	%eax, (%edi,%esi,4)
	addl	$1, %esi
	cmpl	%esi, 88(%esp)
	ja	.L332
	movl	148(%esp), %esi
	cmpl	%esi, 60(%esp)
	je	.L329
.L331:
	movl	108(%esp), %esi
	movl	60(%esp), %ecx
	movzbl	(%ebx,%esi), %eax
	addb	0(%ebp,%esi), %al
	movb	%al, (%edi,%esi)
	movl	104(%esp), %esi
	cmpl	%esi, %ecx
	je	.L329
	movzbl	(%ebx,%esi), %eax
	addb	0(%ebp,%esi), %al
	movb	%al, (%edi,%esi)
	movl	80(%esp), %eax
	cmpl	%eax, %ecx
	je	.L329
	movl	%eax, %esi
	movzbl	(%ebx,%eax), %eax
	addb	0(%ebp,%esi), %al
	movb	%al, (%edi,%esi)
.L329:
	movl	72(%esp), %eax
	cmpl	%eax, (%esp)
	jbe	.L273
	movl	160(%esp), %esi
	movl	%ebx, 52(%esp)
	movl	%ebp, 40(%esp)
	movl	%edi, 44(%esp)
	addl	%ebx, %esi
	movl	%esi, 48(%esp)
	jmp	.L339
	.p2align 4,,10
	.p2align 3
.L487:
	cmpw	%dx, 8(%esp)
	jle	.L367
.L337:
	movzbl	12(%esp), %edx
	addl	%esi, %edx
	movl	44(%esp), %esi
	movb	%dl, (%esi,%eax)
	addl	$1, %eax
	cmpl	(%esp), %eax
	je	.L486
.L339:
	movl	40(%esp), %edi
	movl	48(%esp), %esi
	movzbl	(%edi,%eax), %ebx
	movl	52(%esp), %edi
	movzbl	(%esi,%eax), %esi
	movb	%bl, 12(%esp)
	movzbl	(%edi,%eax), %ebx
	movl	20(%esp), %edi
	movb	%bl, 24(%esp)
	movzbl	(%edi,%eax), %ecx
	movzbl	%bl, %edi
	movl	%esi, %ebx
	movl	%edi, %edx
	movzbl	%bl, %ebx
	subl	%ebx, %edx
	movl	%edx, %ebp
	movb	%cl, 4(%esp)
	sarl	$31, %ebp
	xorl	%ebp, %edx
	subl	%ebp, %edx
	movl	%edx, 8(%esp)
	movzbl	4(%esp), %edx
	movl	%edx, %ecx
	addl	%edi, %edx
	subl	%ebx, %edx
	subl	%ebx, %ecx
	subl	%ebx, %edx
	movl	%ecx, %ebp
	movl	%edx, %ebx
	sarl	$31, %ebp
	sarl	$31, %ebx
	xorl	%ebp, %ecx
	xorl	%ebx, %edx
	subl	%ebp, %ecx
	subl	%ebx, %edx
	cmpw	%dx, %cx
	jg	.L487
.L367:
	cmpw	%cx, 8(%esp)
	movzbl	24(%esp), %esi
	jg	.L337
	movzbl	4(%esp), %esi
	jmp	.L337
	.p2align 4,,10
	.p2align 3
.L267:
	movl	60(%esp), %ebx
	testl	%ebx, %ebx
	je	.L272
	cmpl	36(%esp), %ebp
	setnb	%dl
	cmpl	56(%esp), %edi
	setnb	%al
	orl	%edx, %eax
	cmpl	$9, 60(%esp)
	seta	%dl
	testb	%dl, %al
	je	.L358
	movl	%edi, %eax
	orl	%ebp, %eax
	testb	$3, %al
	jne	.L358
	cmpl	$2, 96(%esp)
	jbe	.L282
	xorl	%eax, %eax
.L283:
	movl	0(%ebp,%eax,4), %edx
	movl	%edx, (%edi,%eax,4)
	addl	$1, %eax
	cmpl	%eax, 88(%esp)
	ja	.L283
	movl	148(%esp), %ebx
	cmpl	%ebx, 60(%esp)
	je	.L272
.L282:
	movl	108(%esp), %ebx
	movl	60(%esp), %edx
	movzbl	0(%ebp,%ebx), %eax
	movb	%al, (%edi,%ebx)
	movl	104(%esp), %ebx
	cmpl	%ebx, %edx
	je	.L272
	movzbl	0(%ebp,%ebx), %eax
	movb	%al, (%edi,%ebx)
	movl	80(%esp), %eax
	cmpl	%eax, %edx
	je	.L272
	movl	%eax, %ebx
	movzbl	0(%ebp,%eax), %eax
	movb	%al, (%edi,%ebx)
.L272:
	movl	72(%esp), %ebx
	cmpl	%ebx, (%esp)
	jbe	.L273
	movl	132(%esp), %eax
	movl	76(%esp), %edx
	addl	%esi, %eax
	addl	%edx, %eax
	movl	%eax, 12(%esp)
	movl	128(%esp), %eax
	leal	(%ecx,%eax), %edx
	movl	%edx, 8(%esp)
	movl	28(%esp), %edx
	movl	8(%esp), %eax
	addl	%edx, %eax
	movl	%eax, 24(%esp)
	movl	%ebx, %eax
	movl	136(%esp), %ebx
	addl	%ecx, %eax
	addl	%eax, %edx
	movl	%edx, 4(%esp)
	leal	(%ecx,%ebx), %edx
	addl	140(%esp), %ecx
	movl	%edx, %ebx
	cmpl	%ecx, %eax
	setge	%cl
	cmpl	%edx, 8(%esp)
	setge	%dl
	orl	%ecx, %edx
	movl	144(%esp), %ecx
	andb	127(%esp), %dl
	addl	%esi, %ecx
	addl	76(%esp), %ecx
	movl	4(%esp), %esi
	cmpl	%ecx, %esi
	setnb	%cl
	addl	28(%esp), %ebx
	movl	%ebx, %eax
	movl	12(%esp), %ebx
	cmpl	%eax, %ebx
	setnb	%al
	orl	%eax, %ecx
	testb	%cl, %dl
	je	.L288
	movl	24(%esp), %ecx
	movl	%esi, %eax
	orl	%ecx, %eax
	orl	%ebx, %eax
	testb	$3, %al
	jne	.L288
	cmpl	$2, 156(%esp)
	jbe	.L359
	movl	%edi, 8(%esp)
	xorl	%esi, %esi
	movl	%ecx, %edi
.L290:
	movl	(%ebx,%esi,4), %edx
	movl	(%edi,%esi,4), %ecx
	movl	%edx, %eax
	xorl	(%edi,%esi,4), %edx
	andl	$2139062143, %ecx
	andl	$2139062143, %eax
	addl	%ecx, %eax
	movl	4(%esp), %ecx
	andl	$-2139062144, %edx
	xorl	%edx, %eax
	movl	%eax, (%ecx,%esi,4)
	addl	$1, %esi
	cmpl	112(%esp), %esi
	jb	.L290
	movl	168(%esp), %esi
	cmpl	%esi, 164(%esp)
	movl	8(%esp), %edi
	je	.L273
	movl	172(%esp), %eax
.L289:
	movl	60(%esp), %esi
	movl	%eax, %edx
	movzbl	0(%ebp,%eax), %ecx
	movl	(%esp), %ebx
	subl	%esi, %edx
	addb	(%edi,%edx), %cl
	leal	1(%eax), %edx
	cmpl	%edx, %ebx
	movb	%cl, (%edi,%eax)
	jbe	.L273
	subl	%esi, %edx
	movzbl	1(%eax,%ebp), %ecx
	addb	(%edi,%edx), %cl
	leal	2(%eax), %edx
	cmpl	%edx, %ebx
	movb	%cl, 1(%eax,%edi)
	jbe	.L273
.L352:
	subl	60(%esp), %edx
	movzbl	2(%eax,%ebp), %ecx
	addb	(%edi,%edx), %cl
	movb	%cl, 2(%eax,%edi)
	jmp	.L273
	.p2align 4,,10
	.p2align 3
.L486:
	movl	40(%esp), %ebp
	movl	%esi, %edi
	jmp	.L273
	.p2align 4,,10
	.p2align 3
.L359:
	movl	72(%esp), %eax
	jmp	.L289
	.p2align 4,,10
	.p2align 3
.L288:
	movl	72(%esp), %eax
	movl	(%esp), %ecx
	movl	20(%esp), %ebx
	.p2align 4,,10
	.p2align 3
.L294:
	movzbl	0(%ebp,%eax), %edx
	addb	(%ebx,%eax), %dl
	movb	%dl, (%edi,%eax)
	addl	$1, %eax
	cmpl	%ecx, %eax
	jne	.L294
	jmp	.L273
	.p2align 4,,10
	.p2align 3
.L358:
	movl	60(%esp), %ebx
	xorl	%eax, %eax
	.p2align 4,,10
	.p2align 3
.L281:
	movzbl	0(%ebp,%eax), %edx
	movb	%dl, (%edi,%eax)
	addl	$1, %eax
	cmpl	%ebx, %eax
	jne	.L281
	jmp	.L272
	.p2align 4,,10
	.p2align 3
.L357:
	movl	(%esp), %ecx
	xorl	%eax, %eax
	.p2align 4,,10
	.p2align 3
.L274:
	movzbl	0(%ebp,%eax), %edx
	movb	%dl, (%edi,%eax)
	addl	$1, %eax
	cmpl	%ecx, %eax
	jne	.L274
	jmp	.L273
	.p2align 4,,10
	.p2align 3
.L363:
	movl	60(%esp), %ecx
	xorl	%eax, %eax
	.p2align 4,,10
	.p2align 3
.L330:
	movzbl	0(%ebp,%eax), %edx
	addb	(%ebx,%eax), %dl
	movb	%dl, (%edi,%eax)
	addl	$1, %eax
	cmpl	%ecx, %eax
	jne	.L330
	jmp	.L329
	.p2align 4,,10
	.p2align 3
.L360:
	movl	(%esp), %ecx
	xorl	%eax, %eax
	.p2align 4,,10
	.p2align 3
.L298:
	movzbl	0(%ebp,%eax), %edx
	addb	(%ebx,%eax), %dl
	movb	%dl, (%edi,%eax)
	addl	$1, %eax
	cmpl	%ecx, %eax
	jne	.L298
	jmp	.L273
	.p2align 4,,10
	.p2align 3
.L485:
	movl	60(%esp), %eax
	testl	%eax, %eax
	je	.L328
	cmpl	36(%esp), %ebp
	setnb	%dl
	cmpl	56(%esp), %edi
	setnb	%al
	orl	%edx, %eax
	cmpl	$9, 60(%esp)
	seta	%dl
	testb	%dl, %al
	je	.L365
	movl	%edi, %eax
	orl	%ebp, %eax
	testb	$3, %al
	jne	.L365
	cmpl	$2, 96(%esp)
	jbe	.L341
	xorl	%eax, %eax
.L342:
	movl	0(%ebp,%eax,4), %edx
	movl	%edx, (%edi,%eax,4)
	addl	$1, %eax
	cmpl	%eax, 88(%esp)
	ja	.L342
	movl	148(%esp), %ebx
	cmpl	%ebx, 60(%esp)
	je	.L328
.L341:
	movl	108(%esp), %ebx
	movl	60(%esp), %edx
	movzbl	0(%ebp,%ebx), %eax
	movb	%al, (%edi,%ebx)
	movl	104(%esp), %eax
	cmpl	%eax, %edx
	je	.L328
	movl	%eax, %ebx
	movzbl	0(%ebp,%eax), %eax
	movb	%al, (%edi,%ebx)
	movl	80(%esp), %eax
	cmpl	%eax, %edx
	je	.L328
	movl	%eax, %ebx
	movzbl	0(%ebp,%eax), %eax
	movb	%al, (%edi,%ebx)
.L328:
	movl	72(%esp), %ebx
	cmpl	%ebx, (%esp)
	jbe	.L273
	movl	132(%esp), %eax
	movl	76(%esp), %edx
	addl	%esi, %eax
	addl	%edx, %eax
	movl	%eax, 12(%esp)
	movl	128(%esp), %eax
	leal	(%ecx,%eax), %edx
	movl	%edx, 8(%esp)
	movl	28(%esp), %edx
	movl	8(%esp), %eax
	addl	%edx, %eax
	movl	%eax, 24(%esp)
	movl	%ebx, %eax
	movl	136(%esp), %ebx
	addl	%ecx, %eax
	addl	%eax, %edx
	movl	%edx, 4(%esp)
	leal	(%ecx,%ebx), %edx
	addl	140(%esp), %ecx
	movl	%edx, %ebx
	cmpl	%eax, %ecx
	setle	%al
	cmpl	8(%esp), %edx
	setle	%dl
	orl	%edx, %eax
	andb	127(%esp), %al
	movl	%eax, %ecx
	movl	144(%esp), %eax
	addl	%esi, %eax
	addl	76(%esp), %eax
	movl	4(%esp), %esi
	cmpl	%eax, %esi
	setnb	%al
	addl	28(%esp), %ebx
	movl	%ebx, %edx
	movl	12(%esp), %ebx
	cmpl	%edx, %ebx
	setnb	%dl
	orl	%edx, %eax
	testb	%al, %cl
	je	.L347
	movl	24(%esp), %ecx
	movl	%esi, %eax
	orl	%ecx, %eax
	orl	%ebx, %eax
	testb	$3, %al
	jne	.L347
	cmpl	$2, 156(%esp)
	jbe	.L366
	movl	%edi, 8(%esp)
	xorl	%esi, %esi
	movl	%ecx, %edi
.L349:
	movl	(%ebx,%esi,4), %edx
	movl	(%edi,%esi,4), %ecx
	movl	%edx, %eax
	xorl	(%edi,%esi,4), %edx
	andl	$2139062143, %ecx
	andl	$2139062143, %eax
	addl	%ecx, %eax
	movl	4(%esp), %ecx
	andl	$-2139062144, %edx
	xorl	%edx, %eax
	movl	%eax, (%ecx,%esi,4)
	addl	$1, %esi
	cmpl	%esi, 112(%esp)
	ja	.L349
	movl	168(%esp), %esi
	cmpl	%esi, 164(%esp)
	movl	8(%esp), %edi
	je	.L273
	movl	172(%esp), %eax
.L348:
	movl	60(%esp), %esi
	movl	%eax, %edx
	movzbl	0(%ebp,%eax), %ecx
	movl	(%esp), %ebx
	subl	%esi, %edx
	addb	(%edi,%edx), %cl
	leal	1(%eax), %edx
	cmpl	%edx, %ebx
	movb	%cl, (%edi,%eax)
	jbe	.L273
	subl	%esi, %edx
	movzbl	1(%eax,%ebp), %ecx
	addb	(%edi,%edx), %cl
	leal	2(%eax), %edx
	cmpl	%edx, %ebx
	movb	%cl, 1(%eax,%edi)
	ja	.L352
	jmp	.L273
	.p2align 4,,10
	.p2align 3
.L484:
	movl	(%esp), %ecx
	testl	%ecx, %ecx
	je	.L273
	cmpl	36(%esp), %ebp
	setnb	%dl
	cmpl	56(%esp), %edi
	setnb	%al
	orl	%edx, %eax
	cmpl	$9, (%esp)
	seta	%dl
	testb	%dl, %al
	je	.L361
	movl	%edi, %eax
	orl	%ebp, %eax
	testb	$3, %al
	jne	.L361
	cmpl	$2, 100(%esp)
	jbe	.L306
	xorl	%eax, %eax
.L307:
	movl	0(%ebp,%eax,4), %edx
	movl	%edx, (%edi,%eax,4)
	addl	$1, %eax
	cmpl	%eax, 92(%esp)
	ja	.L307
	movl	152(%esp), %esi
	cmpl	%esi, (%esp)
	je	.L273
.L306:
	movl	120(%esp), %esi
	movl	(%esp), %ecx
	movzbl	0(%ebp,%esi), %eax
	movb	%al, (%edi,%esi)
	movl	116(%esp), %eax
	cmpl	%eax, %ecx
	je	.L273
	movl	%eax, %esi
	movzbl	0(%ebp,%eax), %eax
	movb	%al, (%edi,%esi)
	movl	84(%esp), %eax
	cmpl	%eax, %ecx
	jne	.L310
	jmp	.L273
	.p2align 4,,10
	.p2align 3
.L483:
	movl	60(%esp), %edx
	testl	%edx, %edx
	je	.L314
	cmpl	36(%esp), %ebp
	setnb	%dl
	cmpl	56(%esp), %edi
	setnb	%al
	orl	%edx, %eax
	cmpl	$9, 60(%esp)
	seta	%dl
	testb	%dl, %al
	je	.L362
	movl	%edi, %eax
	orl	%ebp, %eax
	testb	$3, %al
	jne	.L362
	cmpl	$2, 96(%esp)
	jbe	.L319
	xorl	%eax, %eax
.L320:
	movl	0(%ebp,%eax,4), %edx
	movl	%edx, (%edi,%eax,4)
	addl	$1, %eax
	cmpl	%eax, 88(%esp)
	ja	.L320
	movl	148(%esp), %esi
	cmpl	%esi, 60(%esp)
	je	.L314
.L319:
	movl	108(%esp), %esi
	movl	60(%esp), %ecx
	movzbl	0(%ebp,%esi), %eax
	movb	%al, (%edi,%esi)
	movl	104(%esp), %eax
	cmpl	%eax, %ecx
	je	.L314
	movl	%eax, %esi
	movzbl	0(%ebp,%eax), %eax
	movb	%al, (%edi,%esi)
	movl	80(%esp), %eax
	cmpl	%eax, %ecx
	je	.L314
	movl	%eax, %esi
	movzbl	0(%ebp,%eax), %eax
	movb	%al, (%edi,%esi)
.L314:
	movl	(%esp), %esi
	movl	72(%esp), %eax
	cmpl	%eax, %esi
	jbe	.L273
	movl	20(%esp), %ebx
	movl	%esi, %ecx
	.p2align 4,,10
	.p2align 3
.L325:
	movzbl	(%ebx,%eax), %edx
	shrb	%dl
	addb	0(%ebp,%eax), %dl
	movb	%dl, (%edi,%eax)
	addl	$1, %eax
	cmpl	%ecx, %eax
	jne	.L325
	jmp	.L273
.L366:
	movl	72(%esp), %eax
	jmp	.L348
.L362:
	movl	60(%esp), %ecx
	xorl	%eax, %eax
	.p2align 4,,10
	.p2align 3
.L318:
	movzbl	0(%ebp,%eax), %edx
	movb	%dl, (%edi,%eax)
	addl	$1, %eax
	cmpl	%ecx, %eax
	jne	.L318
	jmp	.L314
.L365:
	movl	60(%esp), %ebx
	xorl	%eax, %eax
	.p2align 4,,10
	.p2align 3
.L340:
	movzbl	0(%ebp,%eax), %edx
	movb	%dl, (%edi,%eax)
	addl	$1, %eax
	cmpl	%ebx, %eax
	jne	.L340
	jmp	.L328
.L361:
	movl	(%esp), %ecx
	xorl	%eax, %eax
	.p2align 4,,10
	.p2align 3
.L305:
	movzbl	0(%ebp,%eax), %edx
	movb	%dl, (%edi,%eax)
	addl	$1, %eax
	cmpl	%ecx, %eax
	jne	.L305
	jmp	.L273
.L347:
	movl	72(%esp), %eax
	movl	(%esp), %ecx
	movl	20(%esp), %ebx
	.p2align 4,,10
	.p2align 3
.L353:
	movzbl	0(%ebp,%eax), %edx
	addb	(%ebx,%eax), %dl
	movb	%dl, (%edi,%eax)
	addl	$1, %eax
	cmpl	%ecx, %eax
	jne	.L353
	jmp	.L273
	.p2align 4,,10
	.p2align 3
.L356:
	movl	$36, %eax
	jmp	.L472
	.cfi_endproc
.LFE171:
	.size	unfilter, .-unfilter
	.section	.text.unlikely
.LCOLDE6:
	.text
.LHOTE6:
	.section	.text.unlikely
.LCOLDB7:
	.text
.LHOTB7:
	.p2align 4,,15
	.type	filterScanline, @function
filterScanline:
.LFB208:
	.cfi_startproc
	pushl	%ebp
	.cfi_def_cfa_offset 8
	.cfi_offset 5, -8
	pushl	%edi
	.cfi_def_cfa_offset 12
	.cfi_offset 7, -12
	pushl	%esi
	.cfi_def_cfa_offset 16
	.cfi_offset 6, -16
	pushl	%ebx
	.cfi_def_cfa_offset 20
	.cfi_offset 3, -20
	movl	%eax, %ebx
	subl	$36, %esp
	.cfi_def_cfa_offset 56
	movl	64(%esp), %eax
	movl	%ecx, (%esp)
	movl	60(%esp), %esi
	cmpb	$4, %al
	ja	.L488
	movzbl	%al, %eax
	movl	%edx, %ebp
	jmp	*.L491(,%eax,4)
	.section	.rodata
	.align 4
	.align 4
.L491:
	.long	.L490
	.long	.L492
	.long	.L493
	.long	.L494
	.long	.L495
	.text
	.p2align 4,,10
	.p2align 3
.L696:
	testl	%esi, %esi
	je	.L694
	leal	4(%ebx), %eax
	cmpl	%eax, %edx
	leal	4(%ebp), %eax
	setnb	%dl
	cmpl	%eax, %ebx
	setnb	%al
	orl	%edx, %eax
	cmpl	$9, %esi
	seta	%dl
	testb	%dl, %al
	je	.L583
	movl	%ebx, %eax
	orl	%ebp, %eax
	testb	$3, %al
	jne	.L583
	leal	-4(%esi), %eax
	xorl	%edx, %edx
	shrl	$2, %eax
	addl	$1, %eax
	leal	0(,%eax,4), %ecx
.L561:
	movl	0(%ebp,%edx,4), %edi
	movl	%edi, (%ebx,%edx,4)
	addl	$1, %edx
	cmpl	%edx, %eax
	ja	.L561
	cmpl	%ecx, %esi
	je	.L565
	movzbl	0(%ebp,%eax,4), %edx
	movb	%dl, (%ebx,%eax,4)
	leal	1(%ecx), %eax
	cmpl	%eax, %esi
	je	.L565
	movzbl	1(%ebp,%ecx), %eax
	movb	%al, 1(%ebx,%ecx)
	leal	2(%ecx), %eax
	cmpl	%eax, %esi
	je	.L565
	movzbl	2(%ebp,%ecx), %eax
	movb	%al, 2(%ebx,%ecx)
.L565:
	movl	%esi, (%esp)
	movl	%esi, %edx
.L549:
	cmpl	%edx, 56(%esp)
	movl	%edx, %eax
	jbe	.L488
	movl	56(%esp), %edi
	subl	%esi, %eax
	leal	(%ebx,%edx), %ecx
	addl	%ebp, %eax
	movl	%eax, 12(%esp)
	movl	%edx, %eax
	subl	%edx, %edi
	addl	$4, %eax
	movl	%edi, 8(%esp)
	leal	0(%ebp,%edx), %edi
	movl	%ecx, %edx
	movl	%esi, %ecx
	movl	%edx, 4(%esp)
	negl	%ecx
	movl	%ecx, 20(%esp)
	leal	(%ebx,%eax), %ecx
	addl	%ebp, %eax
	cmpl	%eax, %edx
	setnb	%dl
	cmpl	%ecx, %edi
	setnb	%al
	orl	%edx, %eax
	cmpl	$6, 8(%esp)
	seta	%dl
	andl	%edx, %eax
	movl	(%esp), %edx
	movb	%al, 16(%esp)
	subl	%esi, %edx
	leal	4(%ebp,%edx), %eax
	cmpl	%eax, 4(%esp)
	setnb	%al
	cmpl	%ecx, 12(%esp)
	setnb	%dl
	orl	%edx, %eax
	testb	%al, 16(%esp)
	je	.L566
	movl	4(%esp), %ecx
	movl	12(%esp), %edx
	orl	%edi, %ecx
	movl	%ecx, %eax
	orl	%edx, %eax
	testb	$3, %al
	jne	.L566
	movl	8(%esp), %ecx
	leal	-4(%ecx), %eax
	shrl	$2, %eax
	leal	1(%eax), %ecx
	movl	%ecx, 12(%esp)
	sall	$2, %ecx
	movl	%ecx, 16(%esp)
	movl	56(%esp), %ecx
	leal	-1(%ecx), %eax
	subl	(%esp), %eax
	cmpl	$2, %eax
	jbe	.L567
	movl	%esi, 60(%esp)
	xorl	%ecx, %ecx
	movl	%ebx, 20(%esp)
	movl	%edx, %esi
.L568:
	movl	(%esi,%ecx,4), %ebx
	movl	(%edi,%ecx,4), %eax
	movl	%ebx, %edx
	andl	$2139062143, %ebx
	xorl	%eax, %edx
	orl	$-2139062144, %eax
	subl	%ebx, %eax
	notl	%edx
	movl	4(%esp), %ebx
	andl	$-2139062144, %edx
	xorl	%edx, %eax
	movl	%eax, (%ebx,%ecx,4)
	addl	$1, %ecx
	cmpl	%ecx, 12(%esp)
	ja	.L568
	movl	16(%esp), %edi
	addl	%edi, (%esp)
	cmpl	%edi, 8(%esp)
	movl	20(%esp), %ebx
	movl	60(%esp), %esi
	je	.L488
.L567:
	movl	(%esp), %edi
	movl	%edi, %edx
	movzbl	0(%ebp,%edi), %eax
	subl	%esi, %edx
	subb	0(%ebp,%edx), %al
	movb	%al, (%ebx,%edi)
	leal	1(%edi), %eax
	cmpl	%eax, 56(%esp)
	jbe	.L488
	subl	%esi, %eax
	movl	%eax, %edx
	movzbl	1(%ebp,%edi), %eax
	subb	0(%ebp,%edx), %al
	movb	%al, 1(%ebx,%edi)
	leal	2(%edi), %eax
	cmpl	%eax, 56(%esp)
	jbe	.L488
	subl	%esi, %eax
	movl	(%esp), %esi
	movzbl	2(%ebp,%esi), %edx
	subb	0(%ebp,%eax), %dl
	movb	%dl, 2(%ebx,%esi)
	.p2align 4,,10
	.p2align 3
.L488:
	addl	$36, %esp
	.cfi_remember_state
	.cfi_def_cfa_offset 20
	popl	%ebx
	.cfi_restore 3
	.cfi_def_cfa_offset 16
	popl	%esi
	.cfi_restore 6
	.cfi_def_cfa_offset 12
	popl	%edi
	.cfi_restore 7
	.cfi_def_cfa_offset 8
	popl	%ebp
	.cfi_restore 5
	.cfi_def_cfa_offset 4
	ret
	.p2align 4,,10
	.p2align 3
.L494:
	.cfi_restore_state
	movl	(%esp), %edx
	testl	%edx, %edx
	je	.L695
	testl	%esi, %esi
	je	.L578
	movl	(%esp), %edi
	xorl	%eax, %eax
	.p2align 4,,10
	.p2align 3
.L538:
	movzbl	(%edi,%eax), %edx
	movzbl	0(%ebp,%eax), %ecx
	shrb	%dl
	subl	%edx, %ecx
	movb	%cl, (%ebx,%eax)
	addl	$1, %eax
	cmpl	%esi, %eax
	jne	.L538
	movl	%esi, %ecx
.L537:
	cmpl	%ecx, 56(%esp)
	jbe	.L488
	movl	%ebp, %eax
	movl	(%esp), %edi
	subl	%esi, %eax
	movl	%eax, %esi
	.p2align 4,,10
	.p2align 3
.L539:
	movzbl	(%esi,%ecx), %edx
	movzbl	(%edi,%ecx), %eax
	addl	%edx, %eax
	movzbl	0(%ebp,%ecx), %edx
	sarl	%eax
	subl	%eax, %edx
	movb	%dl, (%ebx,%ecx)
	addl	$1, %ecx
	cmpl	56(%esp), %ecx
	jne	.L539
	addl	$36, %esp
	.cfi_remember_state
	.cfi_def_cfa_offset 20
	popl	%ebx
	.cfi_restore 3
	.cfi_def_cfa_offset 16
	popl	%esi
	.cfi_restore 6
	.cfi_def_cfa_offset 12
	popl	%edi
	.cfi_restore 7
	.cfi_def_cfa_offset 8
	popl	%ebp
	.cfi_restore 5
	.cfi_def_cfa_offset 4
	ret
	.p2align 4,,10
	.p2align 3
.L495:
	.cfi_restore_state
	movl	(%esp), %eax
	testl	%eax, %eax
	je	.L696
	testl	%esi, %esi
	je	.L580
	leal	4(%ebx), %ecx
	leal	4(%ebp), %eax
	movl	(%esp), %edi
	cmpl	%ecx, %edx
	setnb	%dl
	cmpl	%eax, %ebx
	setnb	%al
	orl	%eax, %edx
	cmpl	%ecx, %edi
	movl	%edi, %eax
	setnb	%cl
	addl	$4, %eax
	cmpl	%eax, %ebx
	setnb	%al
	orl	%ecx, %eax
	andl	%eax, %edx
	cmpl	$6, %esi
	seta	%al
	testb	%al, %dl
	je	.L581
	movl	%edi, %eax
	orl	%ebp, %eax
	orl	%ebx, %eax
	testb	$3, %al
	jne	.L581
	leal	-4(%esi), %edi
	xorl	%ecx, %ecx
	shrl	$2, %edi
	leal	1(%edi), %eax
	leal	0(,%eax,4), %edi
	movl	%eax, 4(%esp)
	movl	%edi, 8(%esp)
.L552:
	movl	(%esp), %edi
	movl	0(%ebp,%ecx,4), %eax
	movl	(%edi,%ecx,4), %edi
	movl	%edi, %edx
	andl	$2139062143, %edi
	xorl	%eax, %edx
	orl	$-2139062144, %eax
	notl	%edx
	subl	%edi, %eax
	andl	$-2139062144, %edx
	xorl	%edx, %eax
	movl	%eax, (%ebx,%ecx,4)
	addl	$1, %ecx
	cmpl	%ecx, 4(%esp)
	ja	.L552
	movl	8(%esp), %edi
	cmpl	%edi, %esi
	je	.L556
	movl	4(%esp), %ecx
	movl	(%esp), %edx
	movzbl	0(%ebp,%ecx,4), %eax
	subb	(%edx,%ecx,4), %al
	movb	%al, (%ebx,%ecx,4)
	leal	1(%edi), %eax
	cmpl	%eax, %esi
	je	.L556
	movzbl	1(%ebp,%edi), %eax
	subb	1(%edx,%edi), %al
	movb	%al, 1(%ebx,%edi)
	leal	2(%edi), %eax
	cmpl	%eax, %esi
	je	.L556
	movl	(%esp), %ecx
	movzbl	2(%ebp,%edi), %eax
	subb	2(%ecx,%edi), %al
	movb	%al, 2(%ebx,%edi)
.L556:
	movl	%esi, %edx
.L550:
	cmpl	%edx, 56(%esp)
	jbe	.L488
	movl	%esi, %eax
	movl	(%esp), %esi
	movl	%ebx, 28(%esp)
	negl	%eax
	movl	%ebp, 32(%esp)
	addl	%eax, %esi
	addl	%ebp, %eax
	movl	%esi, 20(%esp)
	movl	%eax, 24(%esp)
	jmp	.L559
	.p2align 4,,10
	.p2align 3
.L697:
	cmpw	%ax, 8(%esp)
	jle	.L584
.L557:
	movzbl	12(%esp), %eax
	movl	28(%esp), %edi
	movl	%esi, %ebx
	subl	%ebx, %eax
	movb	%al, (%edi,%edx)
	addl	$1, %edx
	cmpl	56(%esp), %edx
	je	.L488
.L559:
	movl	32(%esp), %eax
	movl	24(%esp), %edi
	movzbl	(%eax,%edx), %eax
	movzbl	(%edi,%edx), %ebx
	movb	%al, 12(%esp)
	movl	20(%esp), %eax
	movb	%bl, 4(%esp)
	movzbl	(%eax,%edx), %esi
	movl	(%esp), %eax
	movzbl	(%eax,%edx), %eax
	movl	%esi, %ecx
	movzbl	%cl, %ebx
	movzbl	%al, %edi
	movb	%al, 16(%esp)
	movl	%edi, %eax
	subl	%ebx, %eax
	movl	%eax, %ecx
	sarl	$31, %ecx
	xorl	%ecx, %eax
	subl	%ecx, %eax
	movl	%eax, 8(%esp)
	movzbl	4(%esp), %eax
	movl	%eax, %ecx
	addl	%edi, %eax
	subl	%ebx, %eax
	subl	%ebx, %ecx
	subl	%ebx, %eax
	movl	%ecx, %ebp
	movl	%eax, %ebx
	sarl	$31, %ebp
	sarl	$31, %ebx
	xorl	%ebp, %ecx
	xorl	%ebx, %eax
	subl	%ebp, %ecx
	subl	%ebx, %eax
	cmpw	%ax, %cx
	jg	.L697
.L584:
	cmpw	%cx, 8(%esp)
	movzbl	16(%esp), %esi
	jg	.L557
	movzbl	4(%esp), %esi
	jmp	.L557
	.p2align 4,,10
	.p2align 3
.L492:
	xorl	%eax, %eax
	testl	%esi, %esi
	je	.L497
	leal	4(%ebx), %eax
	cmpl	%eax, %edx
	leal	4(%ebp), %eax
	setnb	%dl
	cmpl	%eax, %ebx
	setnb	%al
	orl	%edx, %eax
	cmpl	$9, %esi
	seta	%dl
	testb	%dl, %al
	je	.L575
	movl	%ebx, %eax
	orl	%ebp, %eax
	testb	$3, %al
	jne	.L575
	leal	-4(%esi), %eax
	xorl	%edx, %edx
	shrl	$2, %eax
	addl	$1, %eax
	leal	0(,%eax,4), %ecx
.L507:
	movl	0(%ebp,%edx,4), %edi
	movl	%edi, (%ebx,%edx,4)
	addl	$1, %edx
	cmpl	%edx, %eax
	ja	.L507
	cmpl	%esi, %ecx
	je	.L511
	movzbl	0(%ebp,%eax,4), %edx
	movb	%dl, (%ebx,%eax,4)
	leal	1(%ecx), %eax
	cmpl	%eax, %esi
	je	.L511
	movzbl	1(%ebp,%ecx), %eax
	movb	%al, 1(%ebx,%ecx)
	leal	2(%ecx), %eax
	cmpl	%eax, %esi
	je	.L511
	movzbl	2(%ebp,%ecx), %eax
	movb	%al, 2(%ebx,%ecx)
.L511:
	movl	%esi, %eax
.L497:
	cmpl	%eax, 56(%esp)
	jbe	.L488
	leal	0(%ebp,%eax), %ecx
	movl	56(%esp), %edi
	movl	%eax, %edx
	subl	%esi, %edx
	movl	%ecx, 12(%esp)
	movl	%esi, %ecx
	addl	%ebp, %edx
	negl	%ecx
	subl	%eax, %edi
	movl	%edx, 4(%esp)
	movl	%ecx, 20(%esp)
	leal	4(%eax), %ecx
	movl	%edi, 8(%esp)
	leal	(%ebx,%eax), %edi
	leal	(%ebx,%ecx), %edx
	addl	%ebp, %ecx
	cmpl	%ecx, %edi
	movl	%edi, (%esp)
	setnb	%cl
	movl	%edx, 16(%esp)
	movl	%ecx, %edi
	movl	%edx, %ecx
	movl	12(%esp), %edx
	cmpl	%edx, %ecx
	setbe	%cl
	orl	%edi, %ecx
	cmpl	$6, 8(%esp)
	seta	%dl
	movl	%edx, %edi
	andl	%edi, %ecx
	movl	%eax, %edi
	subl	%esi, %edi
	leal	4(%ebp,%edi), %edi
	cmpl	%edi, (%esp)
	setnb	%dl
	movl	%edx, %edi
	movl	4(%esp), %edx
	cmpl	%edx, 16(%esp)
	setbe	%dl
	orl	%edi, %edx
	testb	%dl, %cl
	je	.L512
	movl	(%esp), %edx
	movl	12(%esp), %ecx
	orl	%ecx, %edx
	orl	4(%esp), %edx
	andl	$3, %edx
	jne	.L512
	movl	8(%esp), %edx
	leal	-4(%edx), %edi
	shrl	$2, %edi
	leal	1(%edi), %edx
	movl	%edx, 12(%esp)
	sall	$2, %edx
	movl	%edx, 16(%esp)
	movl	56(%esp), %edx
	subl	$1, %edx
	subl	%eax, %edx
	cmpl	$2, %edx
	jbe	.L513
	movl	%ebx, 24(%esp)
	movl	4(%esp), %ebx
	xorl	%edi, %edi
	movl	%esi, 60(%esp)
	movl	%eax, 20(%esp)
	movl	%ecx, %esi
.L514:
	movl	(%ebx,%edi,4), %ecx
	movl	(%esi,%edi,4), %eax
	movl	%ecx, %edx
	andl	$2139062143, %ecx
	xorl	%eax, %edx
	orl	$-2139062144, %eax
	subl	%ecx, %eax
	notl	%edx
	movl	(%esp), %ecx
	andl	$-2139062144, %edx
	xorl	%edx, %eax
	movl	%eax, (%ecx,%edi,4)
	addl	$1, %edi
	cmpl	12(%esp), %edi
	jb	.L514
	movl	16(%esp), %edi
	movl	20(%esp), %eax
	movl	24(%esp), %ebx
	movl	60(%esp), %esi
	addl	%edi, %eax
	cmpl	8(%esp), %edi
	je	.L488
.L513:
	movl	%eax, %ecx
	movzbl	0(%ebp,%eax), %edx
	subl	%esi, %ecx
	subb	0(%ebp,%ecx), %dl
	movb	%dl, (%ebx,%eax)
	leal	1(%eax), %edx
	cmpl	%edx, 56(%esp)
	jbe	.L488
	movl	%edx, %ecx
	movzbl	1(%ebp,%eax), %edx
	subl	%esi, %ecx
	subb	0(%ebp,%ecx), %dl
	movb	%dl, 1(%ebx,%eax)
	leal	2(%eax), %edx
	cmpl	%edx, 56(%esp)
	jbe	.L488
	movzbl	2(%ebp,%eax), %ecx
	subl	%esi, %edx
	subb	0(%ebp,%edx), %cl
	movb	%cl, 2(%ebx,%eax)
	jmp	.L488
	.p2align 4,,10
	.p2align 3
.L493:
	movl	(%esp), %edi
	testl	%edi, %edi
	je	.L698
	movl	56(%esp), %ecx
	testl	%ecx, %ecx
	je	.L488
	leal	4(%ebx), %edx
	leal	4(%ebp), %eax
	movl	(%esp), %esi
	cmpl	%edx, %ebp
	setnb	%cl
	cmpl	%eax, %ebx
	setnb	%al
	orl	%eax, %ecx
	cmpl	%edx, %esi
	leal	4(%esi), %edx
	setnb	%al
	cmpl	%edx, %ebx
	setnb	%dl
	orl	%edx, %eax
	andl	%ecx, %eax
	cmpl	$6, 56(%esp)
	seta	%dl
	testb	%dl, %al
	je	.L576
	movl	%esi, %eax
	orl	%ebp, %eax
	orl	%ebx, %eax
	testb	$3, %al
	jne	.L576
	movl	56(%esp), %eax
	xorl	%ecx, %ecx
	leal	-4(%eax), %edi
	shrl	$2, %edi
	addl	$1, %edi
	leal	0(,%edi,4), %esi
	movl	%esi, 4(%esp)
.L523:
	movl	(%esp), %esi
	movl	0(%ebp,%ecx,4), %eax
	movl	(%esi,%ecx,4), %esi
	movl	%esi, %edx
	andl	$2139062143, %esi
	xorl	%eax, %edx
	orl	$-2139062144, %eax
	notl	%edx
	subl	%esi, %eax
	andl	$-2139062144, %edx
	xorl	%edx, %eax
	movl	%eax, (%ebx,%ecx,4)
	addl	$1, %ecx
	cmpl	%ecx, %edi
	ja	.L523
	movl	4(%esp), %esi
	cmpl	%esi, 56(%esp)
	je	.L488
	movl	(%esp), %ecx
	movzbl	0(%ebp,%edi,4), %eax
	subb	(%ecx,%edi,4), %al
	movb	%al, (%ebx,%edi,4)
	leal	1(%esi), %eax
	cmpl	%eax, 56(%esp)
	je	.L488
	movzbl	1(%ebp,%esi), %eax
	subb	1(%ecx,%esi), %al
	movb	%al, 1(%ebx,%esi)
	leal	2(%esi), %eax
	cmpl	%eax, 56(%esp)
	je	.L488
	movl	(%esp), %edi
	movzbl	2(%ebp,%esi), %eax
	subb	2(%edi,%esi), %al
	movb	%al, 2(%ebx,%esi)
	jmp	.L488
	.p2align 4,,10
	.p2align 3
.L490:
	movl	56(%esp), %eax
	testl	%eax, %eax
	je	.L488
	leal	4(%ebx), %eax
	cmpl	%eax, %edx
	leal	4(%ebp), %eax
	setnb	%dl
	cmpl	%eax, %ebx
	setnb	%al
	orl	%edx, %eax
	cmpl	$9, 56(%esp)
	seta	%dl
	testb	%dl, %al
	je	.L574
	movl	%ebx, %eax
	orl	%ebp, %eax
	testb	$3, %al
	jne	.L574
	movl	56(%esp), %eax
	leal	-4(%eax), %edx
	xorl	%eax, %eax
	shrl	$2, %edx
	addl	$1, %edx
	leal	0(,%edx,4), %ecx
.L500:
	movl	0(%ebp,%eax,4), %esi
	movl	%esi, (%ebx,%eax,4)
	addl	$1, %eax
	cmpl	%edx, %eax
	jb	.L500
.L671:
	cmpl	%ecx, 56(%esp)
	je	.L488
	movzbl	0(%ebp,%edx,4), %eax
	movb	%al, (%ebx,%edx,4)
	leal	1(%ecx), %eax
	cmpl	%eax, 56(%esp)
	je	.L488
	movzbl	1(%ebp,%ecx), %eax
	movb	%al, 1(%ebx,%ecx)
	leal	2(%ecx), %eax
	cmpl	%eax, 56(%esp)
	je	.L488
	movzbl	2(%ebp,%ecx), %eax
	movb	%al, 2(%ebx,%ecx)
	addl	$36, %esp
	.cfi_remember_state
	.cfi_def_cfa_offset 20
	popl	%ebx
	.cfi_restore 3
	.cfi_def_cfa_offset 16
	popl	%esi
	.cfi_restore 6
	.cfi_def_cfa_offset 12
	popl	%edi
	.cfi_restore 7
	.cfi_def_cfa_offset 8
	popl	%ebp
	.cfi_restore 5
	.cfi_def_cfa_offset 4
	ret
	.p2align 4,,10
	.p2align 3
.L575:
	.cfi_restore_state
	xorl	%edx, %edx
	.p2align 4,,10
	.p2align 3
.L506:
	movzbl	0(%ebp,%edx), %eax
	movb	%al, (%ebx,%edx)
	addl	$1, %edx
	cmpl	%esi, %edx
	jne	.L506
	jmp	.L511
	.p2align 4,,10
	.p2align 3
.L512:
	movl	20(%esp), %esi
	leal	0(%ebp,%esi), %ecx
	movl	56(%esp), %esi
	.p2align 4,,10
	.p2align 3
.L518:
	movzbl	0(%ebp,%eax), %edx
	subb	(%ecx,%eax), %dl
	movb	%dl, (%ebx,%eax)
	addl	$1, %eax
	cmpl	%esi, %eax
	jne	.L518
	jmp	.L488
	.p2align 4,,10
	.p2align 3
.L574:
	movl	56(%esp), %ecx
	xorl	%edx, %edx
	.p2align 4,,10
	.p2align 3
.L499:
	movzbl	0(%ebp,%edx), %eax
	movb	%al, (%ebx,%edx)
	addl	$1, %edx
	cmpl	%ecx, %edx
	jne	.L499
	jmp	.L488
	.p2align 4,,10
	.p2align 3
.L581:
	movl	(%esp), %ecx
	xorl	%edx, %edx
	.p2align 4,,10
	.p2align 3
.L551:
	movzbl	0(%ebp,%edx), %eax
	subb	(%ecx,%edx), %al
	movb	%al, (%ebx,%edx)
	addl	$1, %edx
	cmpl	%esi, %edx
	jne	.L551
	jmp	.L556
	.p2align 4,,10
	.p2align 3
.L576:
	movl	(%esp), %ecx
	movl	56(%esp), %esi
	xorl	%edx, %edx
	.p2align 4,,10
	.p2align 3
.L522:
	movzbl	0(%ebp,%edx), %eax
	subb	(%ecx,%edx), %al
	movb	%al, (%ebx,%edx)
	addl	$1, %edx
	cmpl	%esi, %edx
	jne	.L522
	jmp	.L488
	.p2align 4,,10
	.p2align 3
.L698:
	movl	56(%esp), %esi
	testl	%esi, %esi
	je	.L488
	leal	4(%ebx), %eax
	cmpl	%eax, %edx
	leal	4(%ebp), %eax
	setnb	%dl
	cmpl	%eax, %ebx
	setnb	%al
	orl	%edx, %eax
	cmpl	$9, 56(%esp)
	seta	%dl
	testb	%dl, %al
	je	.L577
	movl	%ebx, %eax
	orl	%ebp, %eax
	testb	$3, %al
	jne	.L577
	movl	56(%esp), %eax
	leal	-4(%eax), %edx
	xorl	%eax, %eax
	shrl	$2, %edx
	addl	$1, %edx
	leal	0(,%edx,4), %ecx
.L529:
	movl	0(%ebp,%eax,4), %esi
	movl	%esi, (%ebx,%eax,4)
	addl	$1, %eax
	cmpl	%eax, %edx
	ja	.L529
	jmp	.L671
	.p2align 4,,10
	.p2align 3
.L695:
	xorl	%eax, %eax
	testl	%esi, %esi
	je	.L536
	leal	4(%ebx), %eax
	cmpl	%eax, %ebp
	leal	4(%ebp), %eax
	setnb	%dl
	cmpl	%eax, %ebx
	setnb	%al
	orl	%edx, %eax
	cmpl	$9, %esi
	seta	%dl
	testb	%dl, %al
	je	.L579
	movl	%ebx, %eax
	orl	%ebp, %eax
	testb	$3, %al
	jne	.L579
	leal	-4(%esi), %eax
	xorl	%edx, %edx
	shrl	$2, %eax
	addl	$1, %eax
	leal	0(,%eax,4), %ecx
.L541:
	movl	0(%ebp,%edx,4), %edi
	movl	%edi, (%ebx,%edx,4)
	addl	$1, %edx
	cmpl	%edx, %eax
	ja	.L541
	cmpl	%ecx, %esi
	je	.L545
	movzbl	0(%ebp,%eax,4), %edx
	movb	%dl, (%ebx,%eax,4)
	leal	1(%ecx), %eax
	cmpl	%eax, %esi
	je	.L545
	movzbl	1(%ebp,%ecx), %eax
	movb	%al, 1(%ebx,%ecx)
	leal	2(%ecx), %eax
	cmpl	%eax, %esi
	je	.L545
	movzbl	2(%ebp,%ecx), %eax
	movb	%al, 2(%ebx,%ecx)
.L545:
	movl	%esi, %eax
.L536:
	cmpl	%eax, 56(%esp)
	jbe	.L488
	movl	%ebp, %ecx
	subl	%esi, %ecx
	movl	56(%esp), %esi
	movl	%ecx, %edi
	.p2align 4,,10
	.p2align 3
.L546:
	movzbl	(%edi,%eax), %edx
	movzbl	0(%ebp,%eax), %ecx
	shrb	%dl
	subl	%edx, %ecx
	movb	%cl, (%ebx,%eax)
	addl	$1, %eax
	cmpl	%esi, %eax
	jne	.L546
	jmp	.L488
.L578:
	xorl	%ecx, %ecx
	jmp	.L537
.L580:
	xorl	%edx, %edx
	jmp	.L550
.L577:
	movl	56(%esp), %ecx
	xorl	%edx, %edx
	.p2align 4,,10
	.p2align 3
.L528:
	movzbl	0(%ebp,%edx), %eax
	movb	%al, (%ebx,%edx)
	addl	$1, %edx
	cmpl	%ecx, %edx
	jne	.L528
	jmp	.L488
.L583:
	xorl	%edx, %edx
	.p2align 4,,10
	.p2align 3
.L560:
	movzbl	0(%ebp,%edx), %eax
	movb	%al, (%ebx,%edx)
	addl	$1, %edx
	cmpl	%esi, %edx
	jne	.L560
	jmp	.L565
.L579:
	xorl	%edx, %edx
	.p2align 4,,10
	.p2align 3
.L540:
	movzbl	0(%ebp,%edx), %eax
	movb	%al, (%ebx,%edx)
	addl	$1, %edx
	cmpl	%esi, %edx
	jne	.L540
	jmp	.L545
.L566:
	movl	20(%esp), %eax
	movl	56(%esp), %esi
	leal	0(%ebp,%eax), %edx
	movl	(%esp), %eax
	.p2align 4,,10
	.p2align 3
.L572:
	movzbl	0(%ebp,%eax), %ecx
	subb	(%edx,%eax), %cl
	movb	%cl, (%ebx,%eax)
	addl	$1, %eax
	cmpl	%esi, %eax
	jne	.L572
	jmp	.L488
.L694:
	movl	$0, (%esp)
	movl	(%esp), %edx
	jmp	.L549
	.cfi_endproc
.LFE208:
	.size	filterScanline, .-filterScanline
	.section	.text.unlikely
.LCOLDE7:
	.text
.LHOTE7:
	.section	.text.unlikely
.LCOLDB8:
	.text
.LHOTB8:
	.p2align 4,,15
	.type	lodepng_huffman_code_lengths.part.11, @function
lodepng_huffman_code_lengths.part.11:
.LFB236:
	.cfi_startproc
	pushl	%ebp
	.cfi_def_cfa_offset 8
	.cfi_offset 5, -8
	pushl	%edi
	.cfi_def_cfa_offset 12
	.cfi_offset 7, -12
	movl	$1, %edi
	pushl	%esi
	.cfi_def_cfa_offset 16
	.cfi_offset 6, -16
	pushl	%ebx
	.cfi_def_cfa_offset 20
	.cfi_offset 3, -20
	movl	%ecx, %ebx
	subl	$108, %esp
	.cfi_def_cfa_offset 128
	movzbl	128(%esp), %ecx
	sall	%cl, %edi
	cmpl	%ebx, %edi
	jnb	.L778
	movl	$80, %eax
.L753:
	addl	$108, %esp
	.cfi_remember_state
	.cfi_def_cfa_offset 20
	popl	%ebx
	.cfi_restore 3
	.cfi_def_cfa_offset 16
	popl	%esi
	.cfi_restore 6
	.cfi_def_cfa_offset 12
	popl	%edi
	.cfi_restore 7
	.cfi_def_cfa_offset 8
	popl	%ebp
	.cfi_restore 5
	.cfi_def_cfa_offset 4
	ret
.L778:
	.cfi_restore_state
	movl	%eax, 56(%esp)
	movl	%ebx, %eax
	subl	$12, %esp
	.cfi_def_cfa_offset 140
	sall	$4, %eax
	movl	%edx, %esi
	pushl	%eax
	.cfi_def_cfa_offset 144
	call	malloc
	movl	%eax, %ebp
	movl	%eax, 60(%esp)
	addl	$16, %esp
	.cfi_def_cfa_offset 128
	testl	%ebp, %ebp
	movl	$83, %eax
	je	.L753
	testl	%ebx, %ebx
	je	.L701
	xorl	%edi, %edi
	xorb	%al, %al
	.p2align 4,,10
	.p2align 3
.L703:
	movl	(%esi,%eax,4), %ecx
	testl	%ecx, %ecx
	je	.L702
	movl	%edi, %edx
	addl	$1, %edi
	sall	$4, %edx
	addl	%ebp, %edx
	movl	%ecx, (%edx)
	movl	%eax, 4(%edx)
.L702:
	addl	$1, %eax
	cmpl	%ebx, %eax
	jne	.L703
	movl	%edi, 20(%esp)
	sall	$2, %eax
	subl	$4, %esp
	.cfi_def_cfa_offset 132
	pushl	%eax
	.cfi_def_cfa_offset 136
	pushl	$0
	.cfi_def_cfa_offset 140
	pushl	68(%esp)
	.cfi_def_cfa_offset 144
	call	memset
	addl	$16, %esp
	.cfi_def_cfa_offset 128
	testl	%edi, %edi
	je	.L701
	cmpl	$1, 20(%esp)
	je	.L779
	movl	20(%esp), %eax
	subl	$12, %esp
	.cfi_def_cfa_offset 140
	sall	$4, %eax
	movl	%eax, 72(%esp)
	pushl	%eax
	.cfi_def_cfa_offset 144
	call	malloc
	movl	%eax, 68(%esp)
	addl	$16, %esp
	.cfi_def_cfa_offset 128
	movl	$0, 48(%esp)
	testb	$1, 48(%esp)
	movl	$1, 28(%esp)
	jne	.L740
.L782:
	movl	44(%esp), %eax
	movl	%eax, 16(%esp)
	movl	52(%esp), %eax
.L708:
	movl	28(%esp), %edi
	movl	%eax, 32(%esp)
	xorl	%ebp, %ebp
	leal	(%edi,%edi), %ebx
	sall	$5, %edi
	movl	%edi, 36(%esp)
	movl	%ebx, 40(%esp)
	.p2align 4,,10
	.p2align 3
.L712:
	movl	28(%esp), %eax
	addl	%ebp, %eax
	cmpl	20(%esp), %eax
	movl	%eax, 12(%esp)
	jbe	.L709
	movl	20(%esp), %edi
	movl	%edi, 12(%esp)
.L709:
	addl	28(%esp), %eax
	movl	20(%esp), %esi
	movl	%esi, %edi
	cmpl	%eax, %esi
	movl	%eax, 24(%esp)
	jbe	.L710
	movl	%eax, %edi
.L710:
	cmpl	%ebp, %edi
	movl	32(%esp), %eax
	movl	%ebp, %ebx
	movl	12(%esp), %esi
	jbe	.L719
	movl	%edi, 8(%esp)
	jmp	.L757
	.p2align 4,,10
	.p2align 3
.L780:
	movl	%ebp, %ecx
	sall	$4, %ecx
	cmpl	%esi, 8(%esp)
	ja	.L715
	addl	16(%esp), %ecx
.L716:
	movl	(%ecx), %edx
	addl	$1, %ebp
	addl	$1, %ebx
	addl	$16, %eax
	movl	%edx, -16(%eax)
	movl	4(%ecx), %edx
	movl	%edx, -12(%eax)
	movl	8(%ecx), %edx
	movl	%edx, -8(%eax)
	movl	12(%ecx), %edx
	movl	%edx, -4(%eax)
	cmpl	8(%esp), %ebx
	je	.L719
.L757:
	cmpl	%ebp, 12(%esp)
	ja	.L780
	movl	%esi, %edx
	sall	$4, %edx
	addl	16(%esp), %edx
.L717:
	movl	(%edx), %ecx
	addl	$1, %esi
	addl	$1, %ebx
	addl	$16, %eax
	movl	%ecx, -16(%eax)
	movl	4(%edx), %ecx
	movl	%ecx, -12(%eax)
	movl	8(%edx), %ecx
	movl	%ecx, -8(%eax)
	movl	12(%edx), %edx
	movl	%edx, -4(%eax)
	cmpl	8(%esp), %ebx
	jne	.L757
.L719:
	movl	36(%esp), %edi
	movl	24(%esp), %ebp
	addl	%edi, 32(%esp)
	cmpl	%ebp, 20(%esp)
	ja	.L712
	addl	$1, 48(%esp)
	movl	40(%esp), %edi
	cmpl	%edi, 20(%esp)
	jbe	.L781
	testb	$1, 48(%esp)
	movl	%edi, 28(%esp)
	je	.L782
.L740:
	movl	52(%esp), %eax
	movl	%eax, 16(%esp)
	movl	44(%esp), %eax
	jmp	.L708
.L701:
	movl	56(%esp), %eax
	xorl	%esi, %esi
	movl	$1, 4(%eax)
	movl	$1, (%eax)
.L705:
	subl	$12, %esp
	.cfi_def_cfa_offset 140
	pushl	56(%esp)
	.cfi_def_cfa_offset 144
	call	free
	addl	$16, %esp
	.cfi_def_cfa_offset 128
	movl	%esi, %eax
	addl	$108, %esp
	.cfi_remember_state
	.cfi_def_cfa_offset 20
	popl	%ebx
	.cfi_restore 3
	.cfi_def_cfa_offset 16
	popl	%esi
	.cfi_restore 6
	.cfi_def_cfa_offset 12
	popl	%edi
	.cfi_restore 7
	.cfi_def_cfa_offset 8
	popl	%ebp
	.cfi_restore 5
	.cfi_def_cfa_offset 4
	ret
.L779:
	.cfi_restore_state
	movl	44(%esp), %eax
	movl	56(%esp), %edi
	movl	4(%eax), %eax
	cmpl	$1, %eax
	movl	$1, (%edi,%eax,4)
	sbbl	%eax, %eax
	xorl	%esi, %esi
	andl	$4, %eax
	movl	$1, (%edi,%eax)
	jmp	.L705
	.p2align 4,,10
	.p2align 3
.L715:
	movl	16(%esp), %edi
	movl	%esi, %edx
	sall	$4, %edx
	addl	%edi, %ecx
	addl	%edi, %edx
	movl	(%edx), %edi
	cmpl	%edi, (%ecx)
	jg	.L717
	jmp	.L716
.L781:
	testb	$1, 48(%esp)
	je	.L721
	subl	$4, %esp
	.cfi_def_cfa_offset 132
	pushl	64(%esp)
	.cfi_def_cfa_offset 136
	pushl	60(%esp)
	.cfi_def_cfa_offset 140
	pushl	56(%esp)
	.cfi_def_cfa_offset 144
	call	memcpy
	addl	$16, %esp
	.cfi_def_cfa_offset 128
.L721:
	subl	$12, %esp
	.cfi_def_cfa_offset 140
	pushl	64(%esp)
	.cfi_def_cfa_offset 144
	call	free
	movl	144(%esp), %eax
	movl	$0, 92(%esp)
	leal	(%eax,%eax), %esi
	movl	%eax, 100(%esp)
	addl	$1, %eax
	imull	%eax, %esi
	movl	%esi, %eax
	movl	%esi, 80(%esp)
	movl	%esi, 88(%esp)
	sall	$4, %eax
	movl	%eax, (%esp)
	call	malloc
	movl	%eax, 84(%esp)
	movl	%eax, %ebx
	leal	0(,%esi,4), %eax
	movl	%eax, (%esp)
	call	malloc
	movl	%eax, 96(%esp)
	movl	%eax, %edi
	movl	144(%esp), %eax
	leal	0(,%eax,4), %ebp
	movl	%ebp, (%esp)
	call	malloc
	movl	%ebp, (%esp)
	movl	%eax, 24(%esp)
	movl	%eax, 104(%esp)
	call	malloc
	movl	%eax, 108(%esp)
	addl	$16, %esp
	.cfi_def_cfa_offset 128
	testl	%ebx, %ebx
	sete	%dl
	testl	%edi, %edi
	movl	%eax, %ecx
	sete	%al
	orl	%edx, %eax
	movl	8(%esp), %edx
	testl	%edx, %edx
	sete	%dl
	orb	%dl, %al
	jne	.L743
	testl	%ecx, %ecx
	je	.L743
	testl	%esi, %esi
	je	.L735
	movl	%ebx, %eax
	xorl	%ecx, %ecx
	movl	%edi, %ebx
	jmp	.L736
	.p2align 4,,10
	.p2align 3
.L724:
	movl	80(%esp), %ebx
	movl	68(%esp), %eax
.L736:
	movl	%ecx, %edx
	sall	$4, %edx
	addl	%edx, %eax
	movl	%eax, (%ebx,%ecx,4)
	addl	$1, %ecx
	cmpl	%esi, %ecx
	jne	.L724
.L735:
	subl	$12, %esp
	.cfi_def_cfa_offset 140
	movl	$1, %ecx
	pushl	$0
	.cfi_def_cfa_offset 144
	movl	60(%esp), %edi
	leal	80(%esp), %eax
	movl	(%edi), %edx
	call	bpmnode_create
	movl	16(%edi), %edx
	leal	80(%esp), %eax
	movl	$2, %ecx
	movl	$0, (%esp)
	call	bpmnode_create
	movl	100(%esp), %ebx
	xorl	%eax, %eax
	addl	$16, %esp
	.cfi_def_cfa_offset 128
	testl	%ebx, %ebx
	je	.L728
.L756:
	movl	88(%esp), %edx
	movl	68(%esp), %ecx
	movl	%ecx, (%edx,%eax,4)
	movl	68(%esp), %edi
	movl	92(%esp), %ecx
	leal	16(%edi), %edx
	movl	%edx, (%ecx,%eax,4)
	addl	$1, %eax
	cmpl	%ebx, %eax
	jne	.L756
.L728:
	movl	20(%esp), %eax
	movl	$2, %esi
	leal	-2(%eax,%eax), %edi
	movl	128(%esp), %eax
	cmpl	$2, %edi
	leal	-1(%eax), %ebx
	je	.L727
.L755:
	subl	$8, %esp
	.cfi_def_cfa_offset 136
	pushl	%esi
	.cfi_def_cfa_offset 140
	pushl	%ebx
	.cfi_def_cfa_offset 144
	addl	$1, %esi
	movl	36(%esp), %ecx
	movl	60(%esp), %edx
	leal	80(%esp), %eax
	call	boundaryPM
	addl	$16, %esp
	.cfi_def_cfa_offset 128
	cmpl	%edi, %esi
	jne	.L755
.L727:
	movl	92(%esp), %eax
	movl	-4(%eax,%ebp), %ebx
	testl	%ebx, %ebx
	je	.L730
	movl	44(%esp), %edi
	movl	56(%esp), %esi
.L754:
	movl	4(%ebx), %ebp
	testl	%ebp, %ebp
	je	.L734
	leal	4(%edi), %edx
	xorl	%eax, %eax
	.p2align 4,,10
	.p2align 3
.L732:
	movl	(%edx), %ecx
	addl	$1, %eax
	addl	$16, %edx
	addl	$1, (%esi,%ecx,4)
	cmpl	4(%ebx), %eax
	jne	.L732
.L734:
	movl	8(%ebx), %ebx
	testl	%ebx, %ebx
	jne	.L754
.L730:
	movl	68(%esp), %eax
	xorl	%esi, %esi
.L722:
	subl	$12, %esp
	.cfi_def_cfa_offset 140
	pushl	%eax
	.cfi_def_cfa_offset 144
	call	free
	popl	%eax
	.cfi_def_cfa_offset 140
	pushl	92(%esp)
	.cfi_def_cfa_offset 144
	call	free
	popl	%edx
	.cfi_def_cfa_offset 140
	pushl	100(%esp)
	.cfi_def_cfa_offset 144
	call	free
	popl	%ecx
	.cfi_def_cfa_offset 140
	pushl	104(%esp)
	.cfi_def_cfa_offset 144
	call	free
	addl	$16, %esp
	.cfi_def_cfa_offset 128
	jmp	.L705
.L743:
	movl	%ebx, %eax
	movl	$83, %esi
	jmp	.L722
	.cfi_endproc
.LFE236:
	.size	lodepng_huffman_code_lengths.part.11, .-lodepng_huffman_code_lengths.part.11
	.section	.text.unlikely
.LCOLDE8:
	.text
.LHOTE8:
	.section	.text.unlikely
.LCOLDB9:
	.text
.LHOTB9:
	.p2align 4,,15
	.type	uivector_push_back, @function
uivector_push_back:
.LFB28:
	.cfi_startproc
	pushl	%ebp
	.cfi_def_cfa_offset 8
	.cfi_offset 5, -8
	pushl	%edi
	.cfi_def_cfa_offset 12
	.cfi_offset 7, -12
	movl	%edx, %ebp
	pushl	%esi
	.cfi_def_cfa_offset 16
	.cfi_offset 6, -16
	pushl	%ebx
	.cfi_def_cfa_offset 20
	.cfi_offset 3, -20
	movl	%eax, %ebx
	subl	$28, %esp
	.cfi_def_cfa_offset 48
	movl	4(%eax), %eax
	leal	1(%eax), %esi
	movl	8(%ebx), %eax
	leal	0(,%esi,4), %edi
	cmpl	%eax, %edi
	jbe	.L784
	addl	%eax, %eax
	movl	%edi, %edx
	cmpl	%eax, %edi
	jbe	.L792
.L785:
	subl	$8, %esp
	.cfi_def_cfa_offset 56
	pushl	%edx
	.cfi_def_cfa_offset 60
	movl	%edx, 24(%esp)
	pushl	(%ebx)
	.cfi_def_cfa_offset 64
	call	realloc
	addl	$16, %esp
	.cfi_def_cfa_offset 48
	testl	%eax, %eax
	movl	12(%esp), %edx
	je	.L790
	movl	%edx, 8(%ebx)
	movl	%eax, (%ebx)
.L786:
	movl	%esi, 4(%ebx)
	movl	%ebp, -4(%eax,%edi)
	movl	$1, %eax
.L790:
	addl	$28, %esp
	.cfi_remember_state
	.cfi_def_cfa_offset 20
	popl	%ebx
	.cfi_restore 3
	.cfi_def_cfa_offset 16
	popl	%esi
	.cfi_restore 6
	.cfi_def_cfa_offset 12
	popl	%edi
	.cfi_restore 7
	.cfi_def_cfa_offset 8
	popl	%ebp
	.cfi_restore 5
	.cfi_def_cfa_offset 4
	ret
	.p2align 4,,10
	.p2align 3
.L792:
	.cfi_restore_state
	leal	(%edi,%esi,8), %edx
	shrl	%edx
	jmp	.L785
	.p2align 4,,10
	.p2align 3
.L784:
	movl	(%ebx), %eax
	jmp	.L786
	.cfi_endproc
.LFE28:
	.size	uivector_push_back, .-uivector_push_back
	.section	.text.unlikely
.LCOLDE9:
	.text
.LHOTE9:
	.section	.text.unlikely
.LCOLDB10:
	.text
.LHOTB10:
	.p2align 4,,15
	.type	removePaddingBits, @function
removePaddingBits:
.LFB173:
	.cfi_startproc
	pushl	%ebp
	.cfi_def_cfa_offset 8
	.cfi_offset 5, -8
	pushl	%edi
	.cfi_def_cfa_offset 12
	.cfi_offset 7, -12
	movl	%edx, %edi
	pushl	%esi
	.cfi_def_cfa_offset 16
	.cfi_offset 6, -16
	pushl	%ebx
	.cfi_def_cfa_offset 20
	.cfi_offset 3, -20
	xorl	%edx, %edx
	subl	$24, %esp
	.cfi_def_cfa_offset 44
	movl	44(%esp), %ebx
	movl	%ecx, 16(%esp)
	movl	$0, 8(%esp)
	movl	$0, 12(%esp)
	subl	%ecx, %ebx
	movl	48(%esp), %ecx
	movl	%ebx, 20(%esp)
	testl	%ecx, %ecx
	je	.L793
	.p2align 4,,10
	.p2align 3
.L805:
	movl	16(%esp), %ecx
	testl	%ecx, %ecx
	je	.L799
	movl	12(%esp), %esi
	addl	%edx, %ecx
	movl	%eax, (%esp)
	movl	%ecx, 4(%esp)
	movl	%esi, %ebx
	subl	%edx, %esi
	notl	%ebx
	jmp	.L798
	.p2align 4,,10
	.p2align 3
.L796:
	leal	(%ebx,%esi), %ecx
	movl	$1, %eax
	shrl	$3, %ebp
	addl	$1, %edx
	subl	$1, %ebx
	andl	$7, %ecx
	sall	%cl, %eax
	movl	%eax, %ecx
	movl	(%esp), %eax
	orb	%cl, (%eax,%ebp)
	cmpl	4(%esp), %edx
	je	.L808
.L798:
	leal	(%esi,%edx), %ecx
	shrl	$3, %ecx
	movzbl	(%edi,%ecx), %ebp
	movl	%ebx, %ecx
	andl	$7, %ecx
	btl	%ecx, %ebp
	movl	%edx, %ebp
	jc	.L796
	leal	(%ebx,%esi), %ecx
	movl	$1, %eax
	shrl	$3, %ebp
	addl	$1, %edx
	subl	$1, %ebx
	andl	$7, %ecx
	sall	%cl, %eax
	movl	%eax, %ecx
	movl	(%esp), %eax
	notl	%ecx
	andb	%cl, (%eax,%ebp)
	cmpl	4(%esp), %edx
	jne	.L798
.L808:
	movl	16(%esp), %ebx
	addl	%ebx, 12(%esp)
	movl	(%esp), %eax
.L799:
	addl	$1, 8(%esp)
	movl	20(%esp), %esi
	addl	%esi, 12(%esp)
	movl	8(%esp), %esi
	cmpl	48(%esp), %esi
	jne	.L805
.L793:
	addl	$24, %esp
	.cfi_def_cfa_offset 20
	popl	%ebx
	.cfi_restore 3
	.cfi_def_cfa_offset 16
	popl	%esi
	.cfi_restore 6
	.cfi_def_cfa_offset 12
	popl	%edi
	.cfi_restore 7
	.cfi_def_cfa_offset 8
	popl	%ebp
	.cfi_restore 5
	.cfi_def_cfa_offset 4
	ret
	.cfi_endproc
.LFE173:
	.size	removePaddingBits, .-removePaddingBits
	.section	.text.unlikely
.LCOLDE10:
	.text
.LHOTE10:
	.section	.text.unlikely
.LCOLDB11:
	.text
.LHOTB11:
	.p2align 4,,15
	.type	addPaddingBits, @function
addPaddingBits:
.LFB211:
	.cfi_startproc
	pushl	%ebp
	.cfi_def_cfa_offset 8
	.cfi_offset 5, -8
	pushl	%edi
	.cfi_def_cfa_offset 12
	.cfi_offset 7, -12
	pushl	%esi
	.cfi_def_cfa_offset 16
	.cfi_offset 6, -16
	pushl	%ebx
	.cfi_def_cfa_offset 20
	.cfi_offset 3, -20
	subl	$20, %esp
	.cfi_def_cfa_offset 40
	subl	40(%esp), %ecx
	movl	44(%esp), %ebx
	movl	%edx, 4(%esp)
	xorl	%edx, %edx
	movl	$0, 8(%esp)
	movl	$0, 12(%esp)
	testl	%ebx, %ebx
	movl	%ecx, 16(%esp)
	je	.L809
	.p2align 4,,10
	.p2align 3
.L823:
	movl	40(%esp), %ecx
	testl	%ecx, %ecx
	je	.L820
	movl	12(%esp), %edi
	movl	40(%esp), %ebx
	movl	%eax, (%esp)
	movl	%edi, %esi
	addl	%edx, %ebx
	subl	%edx, %edi
	notl	%esi
	jmp	.L814
	.p2align 4,,10
	.p2align 3
.L812:
	leal	(%esi,%edi), %ecx
	movl	$1, %eax
	shrl	$3, %ebp
	addl	$1, %edx
	subl	$1, %esi
	andl	$7, %ecx
	sall	%cl, %eax
	movl	%eax, %ecx
	movl	(%esp), %eax
	orb	%cl, (%eax,%ebp)
	cmpl	%ebx, %edx
	je	.L826
.L814:
	leal	(%edi,%edx), %ecx
	movl	4(%esp), %ebp
	shrl	$3, %ecx
	movzbl	0(%ebp,%ecx), %ebp
	movl	%esi, %ecx
	andl	$7, %ecx
	btl	%ecx, %ebp
	movl	%edx, %ebp
	jc	.L812
	leal	(%esi,%edi), %ecx
	movl	$1, %eax
	shrl	$3, %ebp
	addl	$1, %edx
	subl	$1, %esi
	andl	$7, %ecx
	sall	%cl, %eax
	movl	%eax, %ecx
	movl	(%esp), %eax
	notl	%ecx
	andb	%cl, (%eax,%ebp)
	cmpl	%ebx, %edx
	jne	.L814
.L826:
	movl	40(%esp), %edi
	addl	%edi, 12(%esp)
	movl	(%esp), %eax
.L817:
	movl	16(%esp), %edi
	testl	%edi, %edi
	je	.L819
	leal	(%ebx,%edi), %edx
	.p2align 4,,10
	.p2align 3
.L816:
	movl	%ebx, %ecx
	movl	$1, %edi
	movl	%ebx, %esi
	notl	%ecx
	shrl	$3, %esi
	addl	$1, %ebx
	andl	$7, %ecx
	sall	%cl, %edi
	movl	%edi, %ecx
	notl	%ecx
	andb	%cl, (%eax,%esi)
	cmpl	%edx, %ebx
	jne	.L816
	addl	$1, 8(%esp)
	movl	8(%esp), %ebx
	cmpl	44(%esp), %ebx
	jne	.L823
.L809:
	addl	$20, %esp
	.cfi_remember_state
	.cfi_def_cfa_offset 20
	popl	%ebx
	.cfi_restore 3
	.cfi_def_cfa_offset 16
	popl	%esi
	.cfi_restore 6
	.cfi_def_cfa_offset 12
	popl	%edi
	.cfi_restore 7
	.cfi_def_cfa_offset 8
	popl	%ebp
	.cfi_restore 5
	.cfi_def_cfa_offset 4
	ret
.L819:
	.cfi_restore_state
	addl	$1, 8(%esp)
	movl	%ebx, %edx
	movl	8(%esp), %ebx
	cmpl	44(%esp), %ebx
	jne	.L823
	jmp	.L809
	.p2align 4,,10
	.p2align 3
.L820:
	movl	%edx, %ebx
	jmp	.L817
	.cfi_endproc
.LFE211:
	.size	addPaddingBits, .-addPaddingBits
	.section	.text.unlikely
.LCOLDE11:
	.text
.LHOTE11:
	.section	.text.unlikely
.LCOLDB12:
	.text
.LHOTB12:
	.p2align 4,,15
	.type	lodepng_zlib_decompress.part.12, @function
lodepng_zlib_decompress.part.12:
.LFB237:
	.cfi_startproc
	pushl	%ebp
	.cfi_def_cfa_offset 8
	.cfi_offset 5, -8
	pushl	%edi
	.cfi_def_cfa_offset 12
	.cfi_offset 7, -12
	pushl	%esi
	.cfi_def_cfa_offset 16
	.cfi_offset 6, -16
	pushl	%ebx
	.cfi_def_cfa_offset 20
	.cfi_offset 3, -20
	subl	$8, %esp
	.cfi_def_cfa_offset 28
	movl	32(%esp), %ebx
	movl	(%ebx), %edi
	testl	%edi, %edi
	movl	%edi, (%esp)
	je	.L838
	movl	$0, (%esp)
.L828:
	movl	(%esp), %eax
	addl	$8, %esp
	.cfi_remember_state
	.cfi_def_cfa_offset 20
	popl	%ebx
	.cfi_restore 3
	.cfi_def_cfa_offset 16
	popl	%esi
	.cfi_restore 6
	.cfi_def_cfa_offset 12
	popl	%edi
	.cfi_restore 7
	.cfi_def_cfa_offset 8
	popl	%ebp
	.cfi_restore 5
	.cfi_def_cfa_offset 4
	ret
.L838:
	.cfi_restore_state
	movl	28(%esp), %ebx
	movl	(%edx), %edi
	leal	-4(%ecx,%ebx), %ebx
	movzbl	(%ebx), %ecx
	movl	%ecx, %esi
	movzbl	1(%ebx), %ecx
	sall	$24, %esi
	sall	$16, %ecx
	orl	%esi, %ecx
	movzbl	3(%ebx), %esi
	movzbl	2(%ebx), %ebx
	orl	%esi, %ecx
	sall	$8, %ebx
	orl	%ebx, %ecx
	testl	%edi, %edi
	movl	$1, %ebx
	movl	%ecx, 4(%esp)
	movl	(%eax), %ecx
	je	.L829
	xorl	%esi, %esi
	movl	$-2146992015, %ebp
	.p2align 4,,10
	.p2align 3
.L832:
	cmpl	$5550, %edi
	movl	%edi, %edx
	jbe	.L830
	movl	$5550, %edx
.L830:
	subl	%edx, %edi
	addl	%ecx, %edx
	.p2align 4,,10
	.p2align 3
.L831:
	addl	$1, %ecx
	movzbl	-1(%ecx), %eax
	addl	%eax, %ebx
	addl	%ebx, %esi
	cmpl	%edx, %ecx
	jne	.L831
	movl	%ebx, %eax
	mull	%ebp
	movl	%esi, %eax
	shrl	$15, %edx
	imull	$65521, %edx, %edx
	subl	%edx, %ebx
	mull	%ebp
	shrl	$15, %edx
	imull	$65521, %edx, %edx
	subl	%edx, %esi
	testl	%edi, %edi
	jne	.L832
	sall	$16, %esi
	orl	%esi, %ebx
.L829:
	cmpl	%ebx, 4(%esp)
	je	.L828
	movl	$58, (%esp)
	movl	(%esp), %eax
	addl	$8, %esp
	.cfi_def_cfa_offset 20
	popl	%ebx
	.cfi_restore 3
	.cfi_def_cfa_offset 16
	popl	%esi
	.cfi_restore 6
	.cfi_def_cfa_offset 12
	popl	%edi
	.cfi_restore 7
	.cfi_def_cfa_offset 8
	popl	%ebp
	.cfi_restore 5
	.cfi_def_cfa_offset 4
	ret
	.cfi_endproc
.LFE237:
	.size	lodepng_zlib_decompress.part.12, .-lodepng_zlib_decompress.part.12
	.section	.text.unlikely
.LCOLDE12:
	.text
.LHOTE12:
	.section	.text.unlikely
.LCOLDB13:
	.text
.LHOTB13:
	.p2align 4,,15
	.type	ucvector_push_back, @function
ucvector_push_back:
.LFB34:
	.cfi_startproc
	pushl	%ebp
	.cfi_def_cfa_offset 8
	.cfi_offset 5, -8
	pushl	%edi
	.cfi_def_cfa_offset 12
	.cfi_offset 7, -12
	pushl	%esi
	.cfi_def_cfa_offset 16
	.cfi_offset 6, -16
	pushl	%ebx
	.cfi_def_cfa_offset 20
	.cfi_offset 3, -20
	movl	%eax, %ebx
	subl	$28, %esp
	.cfi_def_cfa_offset 48
	movl	4(%eax), %edi
	movl	8(%eax), %eax
	leal	1(%edi), %esi
	cmpl	%eax, %esi
	jbe	.L840
	addl	%eax, %eax
	movl	%esi, %ebp
	cmpl	%eax, %esi
	jbe	.L848
.L841:
	movl	%edx, 12(%esp)
	subl	$8, %esp
	.cfi_def_cfa_offset 56
	pushl	%ebp
	.cfi_def_cfa_offset 60
	pushl	(%ebx)
	.cfi_def_cfa_offset 64
	call	realloc
	addl	$16, %esp
	.cfi_def_cfa_offset 48
	testl	%eax, %eax
	movl	12(%esp), %edx
	je	.L846
	movl	%ebp, 8(%ebx)
	movl	%eax, (%ebx)
.L842:
	movl	%esi, 4(%ebx)
	movb	%dl, (%eax,%edi)
	movl	$1, %eax
.L846:
	addl	$28, %esp
	.cfi_remember_state
	.cfi_def_cfa_offset 20
	popl	%ebx
	.cfi_restore 3
	.cfi_def_cfa_offset 16
	popl	%esi
	.cfi_restore 6
	.cfi_def_cfa_offset 12
	popl	%edi
	.cfi_restore 7
	.cfi_def_cfa_offset 8
	popl	%ebp
	.cfi_restore 5
	.cfi_def_cfa_offset 4
	ret
	.p2align 4,,10
	.p2align 3
.L848:
	.cfi_restore_state
	leal	(%esi,%esi,2), %ebp
	shrl	%ebp
	jmp	.L841
	.p2align 4,,10
	.p2align 3
.L840:
	movl	(%ebx), %eax
	jmp	.L842
	.cfi_endproc
.LFE34:
	.size	ucvector_push_back, .-ucvector_push_back
	.section	.text.unlikely
.LCOLDE13:
	.text
.LHOTE13:
	.section	.text.unlikely
.LCOLDB14:
	.text
.LHOTB14:
	.p2align 4,,15
	.type	lodepng_add32bitInt, @function
lodepng_add32bitInt:
.LFB41:
	.cfi_startproc
	pushl	%edi
	.cfi_def_cfa_offset 8
	.cfi_offset 7, -8
	pushl	%esi
	.cfi_def_cfa_offset 12
	.cfi_offset 6, -12
	movl	%eax, %esi
	pushl	%ebx
	.cfi_def_cfa_offset 16
	.cfi_offset 3, -16
	subl	$16, %esp
	.cfi_def_cfa_offset 32
	movl	4(%eax), %eax
	leal	4(%eax), %ebx
	movl	8(%esi), %eax
	cmpl	%eax, %ebx
	jbe	.L850
	addl	%eax, %eax
	movl	%ebx, %edi
	cmpl	%eax, %ebx
	jbe	.L858
.L851:
	movl	%edx, 12(%esp)
	subl	$8, %esp
	.cfi_def_cfa_offset 40
	pushl	%edi
	.cfi_def_cfa_offset 44
	pushl	(%esi)
	.cfi_def_cfa_offset 48
	call	realloc
	addl	$16, %esp
	.cfi_def_cfa_offset 32
	testl	%eax, %eax
	movl	12(%esp), %edx
	je	.L852
	movl	%edi, 8(%esi)
	movl	%eax, (%esi)
.L853:
	movl	%ebx, 4(%esi)
.L854:
	leal	-4(%eax,%ebx), %eax
	movl	%edx, %ecx
	shrl	$24, %ecx
	movb	%cl, (%eax)
	movl	%edx, %ecx
	movb	%dl, 3(%eax)
	shrl	$16, %ecx
	movb	%cl, 1(%eax)
	movl	%edx, %ecx
	shrl	$8, %ecx
	movb	%cl, 2(%eax)
	addl	$16, %esp
	.cfi_remember_state
	.cfi_def_cfa_offset 16
	popl	%ebx
	.cfi_restore 3
	.cfi_def_cfa_offset 12
	popl	%esi
	.cfi_restore 6
	.cfi_def_cfa_offset 8
	popl	%edi
	.cfi_restore 7
	.cfi_def_cfa_offset 4
	ret
	.p2align 4,,10
	.p2align 3
.L858:
	.cfi_restore_state
	leal	(%ebx,%ebx,2), %edi
	shrl	%edi
	jmp	.L851
	.p2align 4,,10
	.p2align 3
.L850:
	movl	(%esi), %eax
	jmp	.L853
	.p2align 4,,10
	.p2align 3
.L852:
	movl	(%esi), %eax
	movl	4(%esi), %ebx
	jmp	.L854
	.cfi_endproc
.LFE41:
	.size	lodepng_add32bitInt, .-lodepng_add32bitInt
	.section	.text.unlikely
.LCOLDE14:
	.text
.LHOTE14:
	.section	.text.unlikely
.LCOLDB15:
	.text
.LHOTB15:
	.p2align 4,,15
	.type	color_tree_cleanup, @function
color_tree_cleanup:
.LFB153:
	.cfi_startproc
	pushl	%ebp
	.cfi_def_cfa_offset 8
	.cfi_offset 5, -8
	pushl	%edi
	.cfi_def_cfa_offset 12
	.cfi_offset 7, -12
	pushl	%esi
	.cfi_def_cfa_offset 16
	.cfi_offset 6, -16
	pushl	%ebx
	.cfi_def_cfa_offset 20
	.cfi_offset 3, -20
	subl	$76, %esp
	.cfi_def_cfa_offset 96
	movl	%eax, 16(%esp)
	addl	$64, %eax
	movl	%eax, 56(%esp)
	movl	16(%esp), %eax
.L877:
	movl	(%eax), %eax
	testl	%eax, %eax
	je	.L860
	movl	%eax, 28(%esp)
	addl	$64, %eax
	movl	%eax, 48(%esp)
	movl	28(%esp), %eax
.L876:
	movl	(%eax), %eax
	testl	%eax, %eax
	je	.L861
	movl	%eax, 32(%esp)
	addl	$64, %eax
	movl	%eax, 52(%esp)
	movl	32(%esp), %eax
.L875:
	movl	(%eax), %eax
	testl	%eax, %eax
	je	.L862
	movl	%eax, 36(%esp)
	addl	$64, %eax
	movl	%eax, 60(%esp)
	movl	36(%esp), %eax
.L874:
	movl	(%eax), %eax
	testl	%eax, %eax
	je	.L863
	movl	%eax, 20(%esp)
	addl	$64, %eax
	movl	%eax, 40(%esp)
	movl	20(%esp), %eax
.L873:
	movl	(%eax), %eax
	testl	%eax, %eax
	je	.L864
	movl	%eax, 24(%esp)
	addl	$64, %eax
	movl	%eax, 44(%esp)
	movl	24(%esp), %eax
.L872:
	movl	(%eax), %ebp
	testl	%ebp, %ebp
	je	.L865
	movl	%ebp, %eax
	movl	%ebp, 8(%esp)
	addl	$64, %eax
	movl	%eax, 12(%esp)
	movl	8(%esp), %eax
.L871:
	movl	(%eax), %esi
	testl	%esi, %esi
	je	.L866
	leal	64(%esi), %edi
	.p2align 4,,10
	.p2align 3
.L870:
	movl	(%esi), %ebx
	testl	%ebx, %ebx
	je	.L867
	leal	64(%ebx), %ebp
	.p2align 4,,10
	.p2align 3
.L869:
	movl	(%ebx), %eax
	testl	%eax, %eax
	je	.L868
	call	color_tree_cleanup
	subl	$12, %esp
	.cfi_def_cfa_offset 108
	pushl	(%ebx)
	.cfi_def_cfa_offset 112
	call	free
	addl	$16, %esp
	.cfi_def_cfa_offset 96
.L868:
	addl	$4, %ebx
	cmpl	%ebp, %ebx
	jne	.L869
	subl	$12, %esp
	.cfi_def_cfa_offset 108
	pushl	(%esi)
	.cfi_def_cfa_offset 112
	call	free
	addl	$16, %esp
	.cfi_def_cfa_offset 96
.L867:
	addl	$4, %esi
	cmpl	%edi, %esi
	jne	.L870
	subl	$12, %esp
	.cfi_def_cfa_offset 108
	movl	20(%esp), %eax
	pushl	(%eax)
	.cfi_def_cfa_offset 112
	call	free
	addl	$16, %esp
	.cfi_def_cfa_offset 96
.L866:
	addl	$4, 8(%esp)
	movl	8(%esp), %eax
	cmpl	12(%esp), %eax
	jne	.L871
	subl	$12, %esp
	.cfi_def_cfa_offset 108
	movl	36(%esp), %eax
	pushl	(%eax)
	.cfi_def_cfa_offset 112
	call	free
	addl	$16, %esp
	.cfi_def_cfa_offset 96
.L865:
	addl	$4, 24(%esp)
	movl	24(%esp), %eax
	cmpl	44(%esp), %eax
	jne	.L872
	subl	$12, %esp
	.cfi_def_cfa_offset 108
	movl	32(%esp), %eax
	pushl	(%eax)
	.cfi_def_cfa_offset 112
	call	free
	addl	$16, %esp
	.cfi_def_cfa_offset 96
.L864:
	addl	$4, 20(%esp)
	movl	20(%esp), %eax
	cmpl	40(%esp), %eax
	jne	.L873
	subl	$12, %esp
	.cfi_def_cfa_offset 108
	movl	48(%esp), %eax
	pushl	(%eax)
	.cfi_def_cfa_offset 112
	call	free
	addl	$16, %esp
	.cfi_def_cfa_offset 96
.L863:
	addl	$4, 36(%esp)
	movl	36(%esp), %eax
	cmpl	60(%esp), %eax
	jne	.L874
	subl	$12, %esp
	.cfi_def_cfa_offset 108
	movl	44(%esp), %eax
	pushl	(%eax)
	.cfi_def_cfa_offset 112
	call	free
	addl	$16, %esp
	.cfi_def_cfa_offset 96
.L862:
	addl	$4, 32(%esp)
	movl	32(%esp), %eax
	cmpl	52(%esp), %eax
	jne	.L875
	subl	$12, %esp
	.cfi_def_cfa_offset 108
	movl	40(%esp), %eax
	pushl	(%eax)
	.cfi_def_cfa_offset 112
	call	free
	addl	$16, %esp
	.cfi_def_cfa_offset 96
.L861:
	addl	$4, 28(%esp)
	movl	28(%esp), %eax
	cmpl	48(%esp), %eax
	jne	.L876
	subl	$12, %esp
	.cfi_def_cfa_offset 108
	movl	28(%esp), %eax
	pushl	(%eax)
	.cfi_def_cfa_offset 112
	call	free
	addl	$16, %esp
	.cfi_def_cfa_offset 96
.L860:
	addl	$4, 16(%esp)
	movl	16(%esp), %eax
	cmpl	56(%esp), %eax
	jne	.L877
	addl	$76, %esp
	.cfi_def_cfa_offset 20
	popl	%ebx
	.cfi_restore 3
	.cfi_def_cfa_offset 16
	popl	%esi
	.cfi_restore 6
	.cfi_def_cfa_offset 12
	popl	%edi
	.cfi_restore 7
	.cfi_def_cfa_offset 8
	popl	%ebp
	.cfi_restore 5
	.cfi_def_cfa_offset 4
	ret
	.cfi_endproc
.LFE153:
	.size	color_tree_cleanup, .-color_tree_cleanup
	.section	.text.unlikely
.LCOLDE15:
	.text
.LHOTE15:
	.section	.text.unlikely
.LCOLDB16:
	.text
.LHOTB16:
	.p2align 4,,15
	.type	addUnknownChunks, @function
addUnknownChunks:
.LFB215:
	.cfi_startproc
	pushl	%ebp
	.cfi_def_cfa_offset 8
	.cfi_offset 5, -8
	pushl	%edi
	.cfi_def_cfa_offset 12
	.cfi_offset 7, -12
	movl	%eax, %edi
	pushl	%esi
	.cfi_def_cfa_offset 16
	.cfi_offset 6, -16
	pushl	%ebx
	.cfi_def_cfa_offset 20
	.cfi_offset 3, -20
	movl	%edx, %esi
	subl	$44, %esp
	.cfi_def_cfa_offset 64
	testl	%ecx, %ecx
	movl	%ecx, 16(%esp)
	movl	%edx, 12(%esp)
	je	.L927
	movl	4(%edi), %ebp
	movl	%edi, %ecx
	.p2align 4,,10
	.p2align 3
.L926:
	movzbl	(%esi), %ebx
	movl	%ebx, %edx
	movzbl	1(%esi), %ebx
	sall	$24, %edx
	movl	%ebx, %eax
	sall	$16, %eax
	orl	%eax, %edx
	movzbl	3(%esi), %eax
	movl	%edx, %ebx
	orl	%eax, %ebx
	movzbl	2(%esi), %eax
	sall	$8, %eax
	orl	%eax, %ebx
	leal	12(%ebx), %edi
	movl	%edi, %edx
	addl	%ebp, %edx
	jc	.L928
	cmpl	%ebp, %edx
	jnb	.L946
.L928:
	addl	$44, %esp
	.cfi_remember_state
	.cfi_def_cfa_offset 20
	movl	$77, %eax
	popl	%ebx
	.cfi_restore 3
	.cfi_def_cfa_offset 16
	popl	%esi
	.cfi_restore 6
	.cfi_def_cfa_offset 12
	popl	%edi
	.cfi_restore 7
	.cfi_def_cfa_offset 8
	popl	%ebp
	.cfi_restore 5
	.cfi_def_cfa_offset 4
	ret
	.p2align 4,,10
	.p2align 3
.L946:
	.cfi_restore_state
	subl	$8, %esp
	.cfi_def_cfa_offset 72
	pushl	%edx
	.cfi_def_cfa_offset 76
	movl	%edx, 36(%esp)
	pushl	(%ecx)
	.cfi_def_cfa_offset 80
	movl	%ecx, 36(%esp)
	call	realloc
	movl	%eax, 44(%esp)
	addl	$16, %esp
	.cfi_def_cfa_offset 64
	testl	%eax, %eax
	je	.L929
	movl	20(%esp), %ecx
	movl	24(%esp), %edx
	testl	%edi, %edi
	movl	%eax, (%ecx)
	movl	%edx, 4(%ecx)
	je	.L930
	movl	%eax, %edx
	addl	%ebp, %eax
	movl	%eax, 20(%esp)
	leal	4(%esi), %eax
	cmpl	%eax, 20(%esp)
	leal	4(%edx,%ebp), %eax
	setnb	24(%esp)
	cmpl	%eax, %esi
	setnb	%al
	orb	24(%esp), %al
	cmpl	$9, %edi
	seta	24(%esp)
	movzbl	24(%esp), %edx
	testb	%al, %dl
	je	.L931
	movl	20(%esp), %edx
	movl	%esi, %eax
	orl	%edx, %eax
	testb	$3, %al
	jne	.L931
	addl	$8, %ebx
	movl	%ecx, 20(%esp)
	shrl	$2, %ebx
	leal	1(%ebx), %eax
	movl	%eax, 24(%esp)
	leal	0(,%eax,4), %ebx
	xorl	%eax, %eax
.L921:
	movl	(%esi,%eax,4), %ecx
	movl	%ecx, (%edx,%eax,4)
	addl	$1, %eax
	cmpl	%eax, 24(%esp)
	ja	.L921
	cmpl	%ebx, %edi
	movl	20(%esp), %ecx
	movl	%edx, 20(%esp)
	je	.L925
	movl	24(%esp), %eax
	movzbl	(%esi,%eax,4), %eax
	movl	%eax, %edx
	movl	28(%esp), %eax
	addl	%ebx, %eax
	movb	%dl, (%eax,%ebp)
	leal	1(%ebx), %eax
	cmpl	%eax, %edi
	je	.L925
	addl	28(%esp), %eax
	movzbl	1(%esi,%ebx), %edx
	movb	%dl, (%eax,%ebp)
	leal	2(%ebx), %eax
	cmpl	%eax, %edi
	je	.L925
	movzbl	2(%esi,%ebx), %ebx
	movl	20(%esp), %edi
	movb	%bl, (%edi,%eax)
.L925:
	movl	4(%ecx), %ebp
.L919:
	movl	%ebp, 8(%ecx)
	movzbl	(%esi), %ebx
	movzbl	1(%esi), %eax
	sall	$24, %ebx
	sall	$16, %eax
	orl	%ebx, %eax
	movzbl	3(%esi), %ebx
	orl	%eax, %ebx
	movzbl	2(%esi), %eax
	sall	$8, %eax
	movl	%eax, %edx
	movl	%ebx, %eax
	orl	%edx, %eax
	leal	12(%esi,%eax), %esi
	movl	%esi, %eax
	subl	12(%esp), %eax
	cmpl	16(%esp), %eax
	jb	.L926
.L927:
	addl	$44, %esp
	.cfi_remember_state
	.cfi_def_cfa_offset 20
	xorl	%eax, %eax
	popl	%ebx
	.cfi_restore 3
	.cfi_def_cfa_offset 16
	popl	%esi
	.cfi_restore 6
	.cfi_def_cfa_offset 12
	popl	%edi
	.cfi_restore 7
	.cfi_def_cfa_offset 8
	popl	%ebp
	.cfi_restore 5
	.cfi_def_cfa_offset 4
	ret
	.p2align 4,,10
	.p2align 3
.L929:
	.cfi_restore_state
	addl	$44, %esp
	.cfi_remember_state
	.cfi_def_cfa_offset 20
	movl	$83, %eax
	popl	%ebx
	.cfi_restore 3
	.cfi_def_cfa_offset 16
	popl	%esi
	.cfi_restore 6
	.cfi_def_cfa_offset 12
	popl	%edi
	.cfi_restore 7
	.cfi_def_cfa_offset 8
	popl	%ebp
	.cfi_restore 5
	.cfi_def_cfa_offset 4
	ret
.L931:
	.cfi_restore_state
	movl	20(%esp), %edx
	xorl	%eax, %eax
	.p2align 4,,10
	.p2align 3
.L920:
	movzbl	(%esi,%eax), %ebx
	movb	%bl, (%edx,%eax)
	addl	$1, %eax
	cmpl	%eax, %edi
	jne	.L920
	jmp	.L925
.L930:
	movl	%edx, %ebp
	jmp	.L919
	.cfi_endproc
.LFE215:
	.size	addUnknownChunks, .-addUnknownChunks
	.section	.text.unlikely
.LCOLDE16:
	.text
.LHOTE16:
	.section	.text.unlikely
.LCOLDB17:
	.text
.LHOTB17:
	.p2align 4,,15
	.type	HuffmanTree_makeFromLengths2, @function
HuffmanTree_makeFromLengths2:
.LFB53:
	.cfi_startproc
	pushl	%ebp
	.cfi_def_cfa_offset 8
	.cfi_offset 5, -8
	pushl	%edi
	.cfi_def_cfa_offset 12
	.cfi_offset 7, -12
	movl	%eax, %ebp
	pushl	%esi
	.cfi_def_cfa_offset 16
	.cfi_offset 6, -16
	pushl	%ebx
	.cfi_def_cfa_offset 20
	.cfi_offset 3, -20
	subl	$56, %esp
	.cfi_def_cfa_offset 76
	movl	16(%eax), %eax
	sall	$2, %eax
	pushl	%eax
	.cfi_def_cfa_offset 80
	call	malloc
	addl	$16, %esp
	.cfi_def_cfa_offset 64
	movl	%eax, 4(%ebp)
	cmpl	$1, %eax
	movl	12(%ebp), %eax
	sbbl	%edi, %edi
	andl	$83, %edi
	leal	1(%eax), %esi
	leal	0(,%esi,4), %edx
	testl	%edx, %edx
	je	.L1015
	subl	$8, %esp
	.cfi_def_cfa_offset 72
	pushl	%edx
	.cfi_def_cfa_offset 76
	movl	%edx, 20(%esp)
	pushl	$0
	.cfi_def_cfa_offset 80
	call	realloc
	addl	$16, %esp
	.cfi_def_cfa_offset 64
	testl	%eax, %eax
	movl	%eax, %ebx
	je	.L949
	testl	%esi, %esi
	movl	8(%esp), %edx
	je	.L953
.L950:
	subl	$4, %esp
	.cfi_def_cfa_offset 68
	pushl	%edx
	.cfi_def_cfa_offset 72
	pushl	$0
	.cfi_def_cfa_offset 76
	pushl	%ebx
	.cfi_def_cfa_offset 80
	call	memset
	addl	$16, %esp
	.cfi_def_cfa_offset 64
.L953:
	movl	12(%ebp), %eax
	xorl	%esi, %esi
	leal	1(%eax), %ecx
	leal	0(,%ecx,4), %edx
	testl	%edx, %edx
	je	.L952
	movl	%ecx, 12(%esp)
	subl	$8, %esp
	.cfi_def_cfa_offset 72
	pushl	%edx
	.cfi_def_cfa_offset 76
	movl	%edx, 20(%esp)
	pushl	$0
	.cfi_def_cfa_offset 80
	call	realloc
	addl	$16, %esp
	.cfi_def_cfa_offset 64
	testl	%eax, %eax
	movl	%eax, %esi
	movl	8(%esp), %edx
	movl	12(%esp), %ecx
	je	.L949
.L952:
	testl	%ecx, %ecx
	je	.L982
	subl	$4, %esp
	.cfi_def_cfa_offset 68
	pushl	%edx
	.cfi_def_cfa_offset 72
	pushl	$0
	.cfi_def_cfa_offset 76
	pushl	%esi
	.cfi_def_cfa_offset 80
	call	memset
	addl	$16, %esp
	.cfi_def_cfa_offset 64
.L982:
	testl	%edi, %edi
	jne	.L954
	movl	16(%ebp), %edi
	testl	%edi, %edi
	je	.L955
	movl	8(%ebp), %ecx
	xorl	%eax, %eax
	.p2align 4,,10
	.p2align 3
.L956:
	movl	(%ecx,%eax,4), %edx
	addl	$1, %eax
	addl	$1, (%ebx,%edx,4)
	cmpl	%eax, 16(%ebp)
	jne	.L956
	movl	12(%ebp), %ecx
	testl	%ecx, %ecx
	je	.L957
.L984:
	movl	(%esi), %edx
	movl	$1, %eax
	.p2align 4,,10
	.p2align 3
.L958:
	addl	-4(%ebx,%eax,4), %edx
	addl	%edx, %edx
	movl	%edx, (%esi,%eax,4)
	addl	$1, %eax
	cmpl	%eax, 12(%ebp)
	jnb	.L958
	movl	16(%ebp), %eax
.L957:
	testl	%eax, %eax
	je	.L959
	movl	8(%ebp), %edi
	movl	%esi, 8(%esp)
	xorl	%edx, %edx
	movl	%ebx, 12(%esp)
	movl	%edi, %esi
	.p2align 4,,10
	.p2align 3
.L961:
	movl	(%esi,%edx,4), %ecx
	leal	0(,%edx,4), %ebx
	testl	%ecx, %ecx
	je	.L960
	movl	4(%ebp), %eax
	movl	8(%esp), %edi
	addl	%ebx, %eax
	leal	(%edi,%ecx,4), %ebx
	movl	(%ebx), %ecx
	leal	1(%ecx), %edi
	movl	%edi, (%ebx)
	movl	%ecx, (%eax)
	movl	16(%ebp), %eax
.L960:
	addl	$1, %edx
	cmpl	%eax, %edx
	jne	.L961
	movl	12(%esp), %ebx
	movl	8(%esp), %esi
.L959:
	subl	$12, %esp
	.cfi_def_cfa_offset 76
	pushl	%ebx
	.cfi_def_cfa_offset 80
	call	free
	movl	%esi, (%esp)
	call	free
	movl	16(%ebp), %eax
	leal	0(,%eax,8), %ebx
	movl	%eax, %esi
	movl	%ebx, (%esp)
	call	malloc
	movl	%eax, %edi
	movl	%eax, 24(%esp)
	addl	$16, %esp
	.cfi_def_cfa_offset 64
	testl	%edi, %edi
	movl	%eax, 0(%ebp)
	movl	$83, %eax
	je	.L1002
	movl	%esi, %eax
	addl	%eax, %eax
	movl	%eax, 28(%esp)
	je	.L983
	movl	%edi, %eax
	addl	%edi, %ebx
	.p2align 4,,10
	.p2align 3
.L962:
	movl	$32767, (%eax)
	addl	$4, %eax
	cmpl	%ebx, %eax
	jne	.L962
	testl	%esi, %esi
	je	.L964
.L963:
	movl	8(%ebp), %eax
	movl	$0, 16(%esp)
	xorl	%edx, %edx
	movl	$0, 12(%esp)
	movl	%esi, %edi
	movl	%ebp, 24(%esp)
	movl	%eax, 20(%esp)
	movl	16(%esp), %eax
.L976:
	movl	20(%esp), %esi
	leal	0(,%eax,4), %ebp
	movl	(%esi,%eax,4), %esi
	testl	%esi, %esi
	je	.L977
	movl	24(%esp), %eax
	leal	-1(%esi), %ecx
	addl	4(%eax), %ebp
	movl	0(%ebp), %eax
	shrl	%cl, %eax
	andl	$1, %eax
	testl	%edx, %edx
	js	.L967
	leal	2(%edx), %ecx
	cmpl	%ecx, %edi
	jb	.L967
	movl	$1, %ebx
	jmp	.L969
	.p2align 4,,10
	.p2align 3
.L974:
	cmpl	%esi, %ebx
	je	.L977
.L975:
	leal	-1(%esi), %ecx
	movl	0(%ebp), %eax
	subl	%ebx, %ecx
	shrl	%cl, %eax
	andl	$1, %eax
	testl	%edx, %edx
	js	.L967
	leal	2(%edx), %ecx
	addl	$1, %ebx
	cmpl	%ecx, %edi
	jb	.L967
.L969:
	movzbl	%al, %eax
	movl	8(%esp), %ecx
	leal	(%eax,%edx,2), %eax
	leal	(%ecx,%eax,4), %ecx
	movl	(%ecx), %eax
	movl	%eax, %edx
	subl	%edi, %edx
	cmpl	$32767, %eax
	jne	.L974
	cmpl	%esi, %ebx
	je	.L1021
	addl	$1, 12(%esp)
	movl	16(%esp), %esi
	movl	12(%esp), %edx
	movl	%edx, %eax
	addl	%edi, %eax
	movl	%eax, (%ecx)
	movl	20(%esp), %eax
	movl	(%eax,%esi,4), %esi
	cmpl	%esi, %ebx
	jne	.L975
	.p2align 4,,10
	.p2align 3
.L977:
	addl	$1, 16(%esp)
	movl	16(%esp), %eax
	cmpl	%eax, %edi
	ja	.L976
	movl	28(%esp), %edx
	testl	%edx, %edx
	je	.L981
.L964:
	movl	8(%esp), %eax
	movl	28(%esp), %edi
	leal	(%eax,%edi,4), %edx
	jmp	.L980
	.p2align 4,,10
	.p2align 3
.L979:
	addl	$4, %eax
	cmpl	%edx, %eax
	je	.L981
.L980:
	cmpl	$32767, (%eax)
	jne	.L979
	movl	$0, (%eax)
	jmp	.L979
	.p2align 4,,10
	.p2align 3
.L949:
	xorl	%esi, %esi
	movl	$83, %edi
.L954:
	subl	$12, %esp
	.cfi_def_cfa_offset 76
	pushl	%ebx
	.cfi_def_cfa_offset 80
	call	free
	movl	%esi, (%esp)
	call	free
	addl	$16, %esp
	.cfi_def_cfa_offset 64
	movl	%edi, %eax
.L1002:
	addl	$44, %esp
	.cfi_remember_state
	.cfi_def_cfa_offset 20
	popl	%ebx
	.cfi_restore 3
	.cfi_def_cfa_offset 16
	popl	%esi
	.cfi_restore 6
	.cfi_def_cfa_offset 12
	popl	%edi
	.cfi_restore 7
	.cfi_def_cfa_offset 8
	popl	%ebp
	.cfi_restore 5
	.cfi_def_cfa_offset 4
	ret
	.p2align 4,,10
	.p2align 3
.L1015:
	.cfi_restore_state
	xorl	%ebx, %ebx
	testl	%esi, %esi
	jne	.L950
	xorl	%esi, %esi
	jmp	.L982
	.p2align 4,,10
	.p2align 3
.L1021:
	movl	16(%esp), %eax
	movl	20(%esp), %esi
	movl	%eax, (%ecx)
	movl	(%esi,%eax,4), %esi
	cmpl	%esi, %ebx
	je	.L1022
	leal	-1(%esi), %ecx
	movl	0(%ebp), %eax
	xorl	%edx, %edx
	subl	%ebx, %ecx
	addl	$1, %ebx
	shrl	%cl, %eax
	andl	$1, %eax
	jmp	.L969
	.p2align 4,,10
	.p2align 3
.L967:
	addl	$44, %esp
	.cfi_remember_state
	.cfi_def_cfa_offset 20
	movl	$55, %eax
	popl	%ebx
	.cfi_restore 3
	.cfi_def_cfa_offset 16
	popl	%esi
	.cfi_restore 6
	.cfi_def_cfa_offset 12
	popl	%edi
	.cfi_restore 7
	.cfi_def_cfa_offset 8
	popl	%ebp
	.cfi_restore 5
	.cfi_def_cfa_offset 4
	ret
.L955:
	.cfi_restore_state
	movl	12(%ebp), %eax
	testl	%eax, %eax
	jne	.L984
	jmp	.L959
.L983:
	testl	%esi, %esi
	jne	.L963
.L981:
	xorl	%eax, %eax
	jmp	.L1002
.L1022:
	xorl	%edx, %edx
	jmp	.L977
	.cfi_endproc
.LFE53:
	.size	HuffmanTree_makeFromLengths2, .-HuffmanTree_makeFromLengths2
	.section	.text.unlikely
.LCOLDE17:
	.text
.LHOTE17:
	.section	.text.unlikely
.LCOLDB18:
	.text
.LHOTB18:
	.p2align 4,,15
	.type	HuffmanTree_makeFromFrequencies, @function
HuffmanTree_makeFromFrequencies:
.LFB59:
	.cfi_startproc
	pushl	%ebp
	.cfi_def_cfa_offset 8
	.cfi_offset 5, -8
	pushl	%edi
	.cfi_def_cfa_offset 12
	.cfi_offset 7, -12
	movl	%eax, %edi
	pushl	%esi
	.cfi_def_cfa_offset 16
	.cfi_offset 6, -16
	pushl	%ebx
	.cfi_def_cfa_offset 20
	.cfi_offset 3, -20
	movl	%edx, %esi
	subl	$28, %esp
	.cfi_def_cfa_offset 48
	movl	48(%esp), %ebx
	movl	52(%esp), %ebp
	leal	1073741823(%ebx), %eax
	movl	(%edx,%eax,4), %edx
	testl	%edx, %edx
	jne	.L1024
	cmpl	%ecx, %ebx
	ja	.L1025
	jmp	.L1024
	.p2align 4,,10
	.p2align 3
.L1042:
	cmpl	%ebx, %ecx
	jnb	.L1024
.L1025:
	subl	$1, %ebx
	movl	-4(%esi,%ebx,4), %eax
	testl	%eax, %eax
	je	.L1042
.L1024:
	leal	0(,%ebx,4), %edx
	subl	$8, %esp
	.cfi_def_cfa_offset 56
	movl	%ebp, 12(%edi)
	movl	%ebx, 16(%edi)
	pushl	%edx
	.cfi_def_cfa_offset 60
	movl	%edx, 24(%esp)
	pushl	8(%edi)
	.cfi_def_cfa_offset 64
	call	realloc
	addl	$16, %esp
	.cfi_def_cfa_offset 48
	testl	%eax, %eax
	movl	%eax, 8(%edi)
	je	.L1028
	subl	$4, %esp
	.cfi_def_cfa_offset 52
	movl	16(%esp), %edx
	pushl	%edx
	.cfi_def_cfa_offset 56
	pushl	$0
	.cfi_def_cfa_offset 60
	pushl	%eax
	.cfi_def_cfa_offset 64
	call	memset
	movl	8(%edi), %eax
	movl	%eax, 28(%esp)
	addl	$16, %esp
	.cfi_def_cfa_offset 48
	testl	%ebx, %ebx
	movl	$80, %eax
	jne	.L1043
.L1027:
	addl	$28, %esp
	.cfi_remember_state
	.cfi_def_cfa_offset 20
	popl	%ebx
	.cfi_restore 3
	.cfi_def_cfa_offset 16
	popl	%esi
	.cfi_restore 6
	.cfi_def_cfa_offset 12
	popl	%edi
	.cfi_restore 7
	.cfi_def_cfa_offset 8
	popl	%ebp
	.cfi_restore 5
	.cfi_def_cfa_offset 4
	ret
	.p2align 4,,10
	.p2align 3
.L1028:
	.cfi_restore_state
	addl	$28, %esp
	.cfi_remember_state
	.cfi_def_cfa_offset 20
	movl	$83, %eax
	popl	%ebx
	.cfi_restore 3
	.cfi_def_cfa_offset 16
	popl	%esi
	.cfi_restore 6
	.cfi_def_cfa_offset 12
	popl	%edi
	.cfi_restore 7
	.cfi_def_cfa_offset 8
	popl	%ebp
	.cfi_restore 5
	.cfi_def_cfa_offset 4
	ret
	.p2align 4,,10
	.p2align 3
.L1043:
	.cfi_restore_state
	subl	$12, %esp
	.cfi_def_cfa_offset 60
	movl	%ebx, %ecx
	movl	%esi, %edx
	pushl	%ebp
	.cfi_def_cfa_offset 64
	movl	28(%esp), %eax
	call	lodepng_huffman_code_lengths.part.11
	addl	$16, %esp
	.cfi_def_cfa_offset 48
	testl	%eax, %eax
	jne	.L1027
	addl	$28, %esp
	.cfi_def_cfa_offset 20
	movl	%edi, %eax
	popl	%ebx
	.cfi_restore 3
	.cfi_def_cfa_offset 16
	popl	%esi
	.cfi_restore 6
	.cfi_def_cfa_offset 12
	popl	%edi
	.cfi_restore 7
	.cfi_def_cfa_offset 8
	popl	%ebp
	.cfi_restore 5
	.cfi_def_cfa_offset 4
	jmp	HuffmanTree_makeFromLengths2
	.cfi_endproc
.LFE59:
	.size	HuffmanTree_makeFromFrequencies, .-HuffmanTree_makeFromFrequencies
	.section	.text.unlikely
.LCOLDE18:
	.text
.LHOTE18:
	.section	.text.unlikely
.LCOLDB19:
	.text
.LHOTB19:
	.p2align 4,,15
	.type	generateFixedLitLenTree, @function
generateFixedLitLenTree:
.LFB62:
	.cfi_startproc
	pushl	%ebp
	.cfi_def_cfa_offset 8
	.cfi_offset 5, -8
	pushl	%edi
	.cfi_def_cfa_offset 12
	.cfi_offset 7, -12
	movl	%eax, %ebp
	pushl	%esi
	.cfi_def_cfa_offset 16
	.cfi_offset 6, -16
	pushl	%ebx
	.cfi_def_cfa_offset 20
	.cfi_offset 3, -20
	movl	$83, %esi
	subl	$24, %esp
	.cfi_def_cfa_offset 44
	pushl	$1152
	.cfi_def_cfa_offset 48
	call	malloc
	addl	$16, %esp
	.cfi_def_cfa_offset 32
	testl	%eax, %eax
	movl	%eax, %ebx
	je	.L1045
	movl	%eax, %edx
	leal	576(%eax), %eax
	.p2align 4,,10
	.p2align 3
.L1046:
	movl	$8, (%edx)
	addl	$4, %edx
	cmpl	%eax, %edx
	jne	.L1046
	leal	1024(%ebx), %edx
	.p2align 4,,10
	.p2align 3
.L1047:
	movl	$9, (%eax)
	addl	$4, %eax
	cmpl	%edx, %eax
	jne	.L1047
	leal	1120(%ebx), %eax
	.p2align 4,,10
	.p2align 3
.L1048:
	movl	$7, (%edx)
	addl	$4, %edx
	cmpl	%eax, %edx
	jne	.L1048
	subl	$12, %esp
	.cfi_def_cfa_offset 44
	movl	$8, 1120(%ebx)
	movl	$8, 1124(%ebx)
	pushl	$1152
	.cfi_def_cfa_offset 48
	movl	$8, 1128(%ebx)
	movl	$83, %esi
	movl	$8, 1132(%ebx)
	movl	$8, 1136(%ebx)
	movl	$8, 1140(%ebx)
	movl	$8, 1144(%ebx)
	movl	$8, 1148(%ebx)
	call	malloc
	addl	$16, %esp
	.cfi_def_cfa_offset 32
	testl	%eax, %eax
	movl	%eax, 8(%ebp)
	je	.L1049
	movl	%eax, %edi
	movl	$288, %ecx
	movl	%ebx, %esi
	rep movsl
	movl	$288, 16(%ebp)
	movl	$15, 12(%ebp)
	movl	%ebp, %eax
	call	HuffmanTree_makeFromLengths2
	movl	%eax, %esi
.L1049:
	subl	$12, %esp
	.cfi_def_cfa_offset 44
	pushl	%ebx
	.cfi_def_cfa_offset 48
	call	free
	addl	$16, %esp
	.cfi_def_cfa_offset 32
.L1045:
	addl	$12, %esp
	.cfi_def_cfa_offset 20
	movl	%esi, %eax
	popl	%ebx
	.cfi_restore 3
	.cfi_def_cfa_offset 16
	popl	%esi
	.cfi_restore 6
	.cfi_def_cfa_offset 12
	popl	%edi
	.cfi_restore 7
	.cfi_def_cfa_offset 8
	popl	%ebp
	.cfi_restore 5
	.cfi_def_cfa_offset 4
	ret
	.cfi_endproc
.LFE62:
	.size	generateFixedLitLenTree, .-generateFixedLitLenTree
	.section	.text.unlikely
.LCOLDE19:
	.text
.LHOTE19:
	.section	.text.unlikely
.LCOLDB20:
	.text
.LHOTB20:
	.p2align 4,,15
	.type	addBitsToStream, @function
addBitsToStream:
.LFB46:
	.cfi_startproc
	pushl	%ebp
	.cfi_def_cfa_offset 8
	.cfi_offset 5, -8
	pushl	%edi
	.cfi_def_cfa_offset 12
	.cfi_offset 7, -12
	pushl	%esi
	.cfi_def_cfa_offset 16
	.cfi_offset 6, -16
	pushl	%ebx
	.cfi_def_cfa_offset 20
	.cfi_offset 3, -20
	subl	$28, %esp
	.cfi_def_cfa_offset 48
	movl	48(%esp), %ebx
	testl	%ebx, %ebx
	je	.L1057
	movl	%edx, %edi
	movl	%ecx, 4(%esp)
	movl	%eax, %ebp
	movl	(%eax), %ebx
	xorl	%edx, %edx
	jmp	.L1063
	.p2align 4,,10
	.p2align 3
.L1059:
	movl	4(%esp), %eax
	movl	%edx, %ecx
	movl	(%edi), %esi
	addl	$1, %edx
	shrl	%cl, %eax
	movl	%ebx, %ecx
	movl	4(%edi), %ebx
	andl	$1, %eax
	andl	$7, %ecx
	sall	%cl, %eax
	orb	%al, -1(%esi,%ebx)
	cmpl	48(%esp), %edx
	movl	0(%ebp), %eax
	leal	1(%eax), %ebx
	movl	%ebx, 0(%ebp)
	je	.L1057
.L1063:
	testb	$7, %bl
	jne	.L1059
	movl	4(%edi), %esi
	movl	8(%edi), %eax
	leal	1(%esi), %ebx
	cmpl	%ebx, %eax
	jnb	.L1060
	addl	%eax, %eax
	movl	%ebx, %ecx
	cmpl	%eax, %ebx
	ja	.L1061
	leal	(%ebx,%ebx,2), %eax
	shrl	%eax
	movl	%eax, %ecx
.L1061:
	movl	%edx, 12(%esp)
	subl	$8, %esp
	.cfi_def_cfa_offset 56
	pushl	%ecx
	.cfi_def_cfa_offset 60
	movl	%ecx, 20(%esp)
	pushl	(%edi)
	.cfi_def_cfa_offset 64
	call	realloc
	addl	$16, %esp
	.cfi_def_cfa_offset 48
	testl	%eax, %eax
	movl	8(%esp), %ecx
	movl	12(%esp), %edx
	je	.L1069
	movl	%ecx, 8(%edi)
	movl	%eax, (%edi)
.L1062:
	movl	%ebx, 4(%edi)
	movb	$0, (%eax,%esi)
	movl	0(%ebp), %ebx
	jmp	.L1059
	.p2align 4,,10
	.p2align 3
.L1060:
	movl	(%edi), %eax
	jmp	.L1062
	.p2align 4,,10
	.p2align 3
.L1057:
	addl	$28, %esp
	.cfi_remember_state
	.cfi_def_cfa_offset 20
	popl	%ebx
	.cfi_restore 3
	.cfi_def_cfa_offset 16
	popl	%esi
	.cfi_restore 6
	.cfi_def_cfa_offset 12
	popl	%edi
	.cfi_restore 7
	.cfi_def_cfa_offset 8
	popl	%ebp
	.cfi_restore 5
	.cfi_def_cfa_offset 4
	ret
	.p2align 4,,10
	.p2align 3
.L1069:
	.cfi_restore_state
	movl	0(%ebp), %ebx
	jmp	.L1059
	.cfi_endproc
.LFE46:
	.size	addBitsToStream, .-addBitsToStream
	.section	.text.unlikely
.LCOLDE20:
	.text
.LHOTE20:
	.section	.text.unlikely
.LCOLDB21:
	.text
.LHOTB21:
	.p2align 4,,15
	.type	addBitsToStreamReversed, @function
addBitsToStreamReversed:
.LFB47:
	.cfi_startproc
	pushl	%ebp
	.cfi_def_cfa_offset 8
	.cfi_offset 5, -8
	pushl	%edi
	.cfi_def_cfa_offset 12
	.cfi_offset 7, -12
	pushl	%esi
	.cfi_def_cfa_offset 16
	.cfi_offset 6, -16
	pushl	%ebx
	.cfi_def_cfa_offset 20
	.cfi_offset 3, -20
	subl	$28, %esp
	.cfi_def_cfa_offset 48
	movl	48(%esp), %esi
	testl	%esi, %esi
	je	.L1070
	movl	%edx, %edi
	leal	-1(%esi), %edx
	movl	%ecx, 4(%esp)
	movl	%eax, %ebp
	movl	(%eax), %ebx
	movl	%edx, %esi
	jmp	.L1076
	.p2align 4,,10
	.p2align 3
.L1072:
	movl	4(%esp), %eax
	movl	%esi, %ecx
	movl	(%edi), %edx
	subl	$1, %esi
	shrl	%cl, %eax
	movl	%ebx, %ecx
	movl	4(%edi), %ebx
	andl	$1, %eax
	andl	$7, %ecx
	sall	%cl, %eax
	orb	%al, -1(%edx,%ebx)
	cmpl	$-1, %esi
	movl	0(%ebp), %eax
	leal	1(%eax), %ebx
	movl	%ebx, 0(%ebp)
	je	.L1070
.L1076:
	testb	$7, %bl
	jne	.L1072
	movl	4(%edi), %edx
	movl	8(%edi), %eax
	leal	1(%edx), %ebx
	cmpl	%ebx, %eax
	jnb	.L1073
	addl	%eax, %eax
	movl	%ebx, %ecx
	cmpl	%eax, %ebx
	ja	.L1074
	leal	(%ebx,%ebx,2), %ecx
	shrl	%ecx
.L1074:
	movl	%edx, 12(%esp)
	subl	$8, %esp
	.cfi_def_cfa_offset 56
	pushl	%ecx
	.cfi_def_cfa_offset 60
	movl	%ecx, 20(%esp)
	pushl	(%edi)
	.cfi_def_cfa_offset 64
	call	realloc
	addl	$16, %esp
	.cfi_def_cfa_offset 48
	testl	%eax, %eax
	movl	8(%esp), %ecx
	movl	12(%esp), %edx
	je	.L1082
	movl	%ecx, 8(%edi)
	movl	%eax, (%edi)
.L1075:
	movl	%ebx, 4(%edi)
	movb	$0, (%eax,%edx)
	movl	0(%ebp), %ebx
	jmp	.L1072
	.p2align 4,,10
	.p2align 3
.L1073:
	movl	(%edi), %eax
	jmp	.L1075
	.p2align 4,,10
	.p2align 3
.L1070:
	addl	$28, %esp
	.cfi_remember_state
	.cfi_def_cfa_offset 20
	popl	%ebx
	.cfi_restore 3
	.cfi_def_cfa_offset 16
	popl	%esi
	.cfi_restore 6
	.cfi_def_cfa_offset 12
	popl	%edi
	.cfi_restore 7
	.cfi_def_cfa_offset 8
	popl	%ebp
	.cfi_restore 5
	.cfi_def_cfa_offset 4
	ret
	.p2align 4,,10
	.p2align 3
.L1082:
	.cfi_restore_state
	movl	0(%ebp), %ebx
	jmp	.L1072
	.cfi_endproc
.LFE47:
	.size	addBitsToStreamReversed, .-addBitsToStreamReversed
	.section	.text.unlikely
.LCOLDE21:
	.text
.LHOTE21:
	.section	.text.unlikely
.LCOLDB22:
	.text
.LHOTB22:
	.p2align 4,,15
	.type	writeLZ77data.isra.7, @function
writeLZ77data.isra.7:
.LFB232:
	.cfi_startproc
	pushl	%ebp
	.cfi_def_cfa_offset 8
	.cfi_offset 5, -8
	pushl	%edi
	.cfi_def_cfa_offset 12
	.cfi_offset 7, -12
	movl	%eax, %ebp
	pushl	%esi
	.cfi_def_cfa_offset 16
	.cfi_offset 6, -16
	pushl	%ebx
	.cfi_def_cfa_offset 20
	.cfi_offset 3, -20
	subl	$60, %esp
	.cfi_def_cfa_offset 80
	movl	80(%esp), %eax
	movl	%ecx, 32(%esp)
	movl	$0, 16(%esp)
	movl	(%eax), %ecx
	testl	%ecx, %ecx
	je	.L1083
	movl	%edx, %edi
	movl	%ebp, %esi
	.p2align 4,,10
	.p2align 3
.L1124:
	movl	16(%esp), %ebx
	movl	%ebx, %eax
	sall	$2, %eax
	movl	%eax, 36(%esp)
	movl	32(%esp), %eax
	movl	(%eax), %eax
	movl	(%eax,%ebx,4), %eax
	movl	%eax, %ecx
	movl	%eax, 28(%esp)
	movl	84(%esp), %eax
	movl	8(%eax), %eax
	movl	(%eax,%ecx,4), %ebx
	movl	84(%esp), %eax
	movl	4(%eax), %eax
	testl	%ebx, %ebx
	movl	(%eax,%ecx,4), %eax
	movl	%eax, 12(%esp)
	je	.L1093
	subl	$1, %ebx
	movl	(%esi), %eax
	movl	%ebx, %ebp
	jmp	.L1092
	.p2align 4,,10
	.p2align 3
.L1088:
	movl	12(%esp), %edx
	movl	%ebp, %ecx
	andl	$7, %eax
	movl	4(%edi), %ebx
	subl	$1, %ebp
	shrl	%cl, %edx
	movl	%eax, %ecx
	movl	(%edi), %eax
	andl	$1, %edx
	sall	%cl, %edx
	orb	%dl, -1(%eax,%ebx)
	movl	(%esi), %eax
	addl	$1, %eax
	cmpl	$-1, %ebp
	movl	%eax, (%esi)
	je	.L1093
.L1092:
	testb	$7, %al
	jne	.L1088
	movl	4(%edi), %ecx
	movl	8(%edi), %eax
	leal	1(%ecx), %ebx
	cmpl	%eax, %ebx
	jbe	.L1089
	addl	%eax, %eax
	movl	%ebx, %edx
	cmpl	%eax, %ebx
	ja	.L1090
	leal	(%ebx,%ebx,2), %edx
	shrl	%edx
.L1090:
	movl	%ecx, 24(%esp)
	subl	$8, %esp
	.cfi_def_cfa_offset 88
	pushl	%edx
	.cfi_def_cfa_offset 92
	movl	%edx, 32(%esp)
	pushl	(%edi)
	.cfi_def_cfa_offset 96
	call	realloc
	addl	$16, %esp
	.cfi_def_cfa_offset 80
	testl	%eax, %eax
	movl	20(%esp), %edx
	movl	24(%esp), %ecx
	je	.L1132
	movl	%edx, 8(%edi)
	movl	%eax, (%edi)
.L1091:
	movl	%ebx, 4(%edi)
	movb	$0, (%eax,%ecx)
	movl	(%esi), %eax
	jmp	.L1088
	.p2align 4,,10
	.p2align 3
.L1089:
	movl	(%edi), %eax
	jmp	.L1091
	.p2align 4,,10
	.p2align 3
.L1093:
	cmpl	$256, 28(%esp)
	ja	.L1133
.L1087:
	movl	80(%esp), %ebx
	addl	$1, 16(%esp)
	movl	16(%esp), %eax
	cmpl	(%ebx), %eax
	jne	.L1124
.L1083:
	addl	$60, %esp
	.cfi_remember_state
	.cfi_def_cfa_offset 20
	popl	%ebx
	.cfi_restore 3
	.cfi_def_cfa_offset 16
	popl	%esi
	.cfi_restore 6
	.cfi_def_cfa_offset 12
	popl	%edi
	.cfi_restore 7
	.cfi_def_cfa_offset 8
	popl	%ebp
	.cfi_restore 5
	.cfi_def_cfa_offset 4
	ret
	.p2align 4,,10
	.p2align 3
.L1133:
	.cfi_restore_state
	movl	28(%esp), %eax
	movl	36(%esp), %ebx
	addl	$3, 16(%esp)
	movl	LENGTHEXTRA-1028(,%eax,4), %eax
	movl	%eax, %ecx
	movl	%eax, 20(%esp)
	movl	32(%esp), %eax
	testl	%ecx, %ecx
	movl	(%eax), %eax
	movl	4(%eax,%ebx), %edx
	movl	%edx, 24(%esp)
	movl	8(%eax,%ebx), %edx
	movl	12(%eax,%ebx), %eax
	movl	%edx, 44(%esp)
	movl	DISTANCEEXTRA(,%edx,4), %edx
	movl	%eax, 28(%esp)
	movl	%edx, 12(%esp)
	je	.L1102
	movl	(%esi), %eax
	xorl	%ebp, %ebp
	jmp	.L1101
	.p2align 4,,10
	.p2align 3
.L1097:
	movl	24(%esp), %edx
	movl	%ebp, %ecx
	andl	$7, %eax
	movl	4(%edi), %ebx
	addl	$1, %ebp
	shrl	%cl, %edx
	movl	%eax, %ecx
	movl	(%edi), %eax
	andl	$1, %edx
	sall	%cl, %edx
	orb	%dl, -1(%eax,%ebx)
	movl	(%esi), %eax
	addl	$1, %eax
	cmpl	20(%esp), %ebp
	movl	%eax, (%esi)
	je	.L1102
.L1101:
	testb	$7, %al
	jne	.L1097
	movl	4(%edi), %ecx
	movl	8(%edi), %eax
	leal	1(%ecx), %ebx
	cmpl	%eax, %ebx
	jbe	.L1098
	addl	%eax, %eax
	movl	%ebx, %edx
	cmpl	%eax, %ebx
	ja	.L1099
	leal	(%ebx,%ebx,2), %edx
	shrl	%edx
.L1099:
	movl	%ecx, 40(%esp)
	subl	$8, %esp
	.cfi_def_cfa_offset 88
	pushl	%edx
	.cfi_def_cfa_offset 92
	movl	%edx, 48(%esp)
	pushl	(%edi)
	.cfi_def_cfa_offset 96
	call	realloc
	addl	$16, %esp
	.cfi_def_cfa_offset 80
	testl	%eax, %eax
	movl	36(%esp), %edx
	movl	40(%esp), %ecx
	je	.L1134
	movl	%edx, 8(%edi)
	movl	%eax, (%edi)
.L1100:
	movl	%ebx, 4(%edi)
	movb	$0, (%eax,%ecx)
	movl	(%esi), %eax
	jmp	.L1097
	.p2align 4,,10
	.p2align 3
.L1098:
	movl	(%edi), %eax
	jmp	.L1100
	.p2align 4,,10
	.p2align 3
.L1102:
	movl	88(%esp), %eax
	movl	44(%esp), %ebx
	movl	8(%eax), %eax
	movl	(%eax,%ebx,4), %ebp
	movl	88(%esp), %eax
	movl	4(%eax), %eax
	testl	%ebp, %ebp
	movl	(%eax,%ebx,4), %eax
	movl	%eax, 20(%esp)
	je	.L1096
	movl	(%esi), %eax
	subl	$1, %ebp
	jmp	.L1108
	.p2align 4,,10
	.p2align 3
.L1104:
	movl	20(%esp), %edx
	movl	%ebp, %ecx
	andl	$7, %eax
	movl	4(%edi), %ebx
	subl	$1, %ebp
	shrl	%cl, %edx
	movl	%eax, %ecx
	movl	(%edi), %eax
	andl	$1, %edx
	sall	%cl, %edx
	orb	%dl, -1(%eax,%ebx)
	movl	(%esi), %eax
	addl	$1, %eax
	cmpl	$-1, %ebp
	movl	%eax, (%esi)
	je	.L1096
.L1108:
	testb	$7, %al
	jne	.L1104
	movl	4(%edi), %ecx
	movl	8(%edi), %eax
	leal	1(%ecx), %ebx
	cmpl	%eax, %ebx
	jbe	.L1105
	addl	%eax, %eax
	movl	%ebx, %edx
	cmpl	%eax, %ebx
	ja	.L1106
	leal	(%ebx,%ebx,2), %edx
	shrl	%edx
.L1106:
	movl	%ecx, 36(%esp)
	subl	$8, %esp
	.cfi_def_cfa_offset 88
	pushl	%edx
	.cfi_def_cfa_offset 92
	movl	%edx, 36(%esp)
	pushl	(%edi)
	.cfi_def_cfa_offset 96
	call	realloc
	addl	$16, %esp
	.cfi_def_cfa_offset 80
	testl	%eax, %eax
	movl	24(%esp), %edx
	movl	36(%esp), %ecx
	je	.L1135
	movl	%edx, 8(%edi)
	movl	%eax, (%edi)
.L1107:
	movl	%ebx, 4(%edi)
	movb	$0, (%eax,%ecx)
	movl	(%esi), %eax
	jmp	.L1104
	.p2align 4,,10
	.p2align 3
.L1105:
	movl	(%edi), %eax
	jmp	.L1107
	.p2align 4,,10
	.p2align 3
.L1096:
	movl	12(%esp), %eax
	testl	%eax, %eax
	je	.L1087
	movl	(%esi), %eax
	xorl	%ebp, %ebp
	jmp	.L1113
	.p2align 4,,10
	.p2align 3
.L1109:
	movl	28(%esp), %edx
	movl	%ebp, %ecx
	andl	$7, %eax
	movl	4(%edi), %ebx
	addl	$1, %ebp
	shrl	%cl, %edx
	movl	%eax, %ecx
	movl	(%edi), %eax
	andl	$1, %edx
	sall	%cl, %edx
	orb	%dl, -1(%eax,%ebx)
	movl	(%esi), %eax
	addl	$1, %eax
	cmpl	12(%esp), %ebp
	movl	%eax, (%esi)
	je	.L1087
.L1113:
	testb	$7, %al
	jne	.L1109
	movl	4(%edi), %ecx
	movl	8(%edi), %eax
	leal	1(%ecx), %ebx
	cmpl	%eax, %ebx
	jbe	.L1110
	addl	%eax, %eax
	movl	%ebx, %edx
	cmpl	%eax, %ebx
	ja	.L1111
	leal	(%ebx,%ebx,2), %edx
	shrl	%edx
.L1111:
	movl	%ecx, 24(%esp)
	subl	$8, %esp
	.cfi_def_cfa_offset 88
	pushl	%edx
	.cfi_def_cfa_offset 92
	movl	%edx, 32(%esp)
	pushl	(%edi)
	.cfi_def_cfa_offset 96
	call	realloc
	addl	$16, %esp
	.cfi_def_cfa_offset 80
	testl	%eax, %eax
	movl	20(%esp), %edx
	movl	24(%esp), %ecx
	je	.L1136
	movl	%edx, 8(%edi)
	movl	%eax, (%edi)
.L1112:
	movl	%ebx, 4(%edi)
	movb	$0, (%eax,%ecx)
	movl	(%esi), %eax
	jmp	.L1109
	.p2align 4,,10
	.p2align 3
.L1110:
	movl	(%edi), %eax
	jmp	.L1112
	.p2align 4,,10
	.p2align 3
.L1132:
	movl	(%esi), %eax
	jmp	.L1088
.L1134:
	movl	(%esi), %eax
	jmp	.L1097
.L1135:
	movl	(%esi), %eax
	jmp	.L1104
.L1136:
	movl	(%esi), %eax
	jmp	.L1109
	.cfi_endproc
.LFE232:
	.size	writeLZ77data.isra.7, .-writeLZ77data.isra.7
	.section	.text.unlikely
.LCOLDE22:
	.text
.LHOTE22:
	.section	.text.unlikely
.LCOLDB23:
	.text
.LHOTB23:
	.p2align 4,,15
	.type	encodeLZ77, @function
encodeLZ77:
.LFB80:
	.cfi_startproc
	pushl	%ebp
	.cfi_def_cfa_offset 8
	.cfi_offset 5, -8
	pushl	%edi
	.cfi_def_cfa_offset 12
	.cfi_offset 7, -12
	pushl	%esi
	.cfi_def_cfa_offset 16
	.cfi_offset 6, -16
	pushl	%ebx
	.cfi_def_cfa_offset 20
	.cfi_offset 3, -20
	subl	$124, %esp
	.cfi_def_cfa_offset 144
	cmpl	$8191, 152(%esp)
	movl	152(%esp), %edi
	ja	.L1220
	shrl	$3, %edi
	movl	$64, 100(%esp)
	movl	%edi, 32(%esp)
	movl	152(%esp), %edi
.L1138:
	subl	$1, %edi
	movl	$60, 84(%esp)
	cmpl	$32767, %edi
	movl	%edi, 72(%esp)
	jbe	.L1309
.L1268:
	movl	84(%esp), %eax
	addl	$124, %esp
	.cfi_remember_state
	.cfi_def_cfa_offset 20
	popl	%ebx
	.cfi_restore 3
	.cfi_def_cfa_offset 16
	popl	%esi
	.cfi_restore 6
	.cfi_def_cfa_offset 12
	popl	%edi
	.cfi_restore 7
	.cfi_def_cfa_offset 8
	popl	%ebp
	.cfi_restore 5
	.cfi_def_cfa_offset 4
	ret
.L1220:
	.cfi_restore_state
	movl	%edi, 32(%esp)
	movl	$258, 100(%esp)
	jmp	.L1138
.L1309:
	andl	152(%esp), %edi
	movl	%edi, 84(%esp)
	je	.L1310
	movl	$90, 84(%esp)
	movl	84(%esp), %eax
	addl	$124, %esp
	.cfi_remember_state
	.cfi_def_cfa_offset 20
	popl	%ebx
	.cfi_restore 3
	.cfi_def_cfa_offset 16
	popl	%esi
	.cfi_restore 6
	.cfi_def_cfa_offset 12
	popl	%edi
	.cfi_restore 7
	.cfi_def_cfa_offset 8
	popl	%ebp
	.cfi_restore 5
	.cfi_def_cfa_offset 4
	ret
.L1310:
	.cfi_restore_state
	movl	160(%esp), %edi
	cmpl	$258, %edi
	movl	%edi, 68(%esp)
	jbe	.L1140
	movl	$258, 68(%esp)
.L1140:
	movl	148(%esp), %edi
	cmpl	%edi, 144(%esp)
	jnb	.L1268
	movl	%eax, 76(%esp)
	movl	$2, %eax
	movl	%ecx, 48(%esp)
	subl	%ecx, %eax
	movl	%edx, 44(%esp)
	movl	$0, 108(%esp)
	movl	$0, 104(%esp)
	movl	$0, 96(%esp)
	xorl	%ebp, %ebp
	movl	%eax, 88(%esp)
	.p2align 4,,10
	.p2align 3
.L1214:
	movl	72(%esp), %eax
	andl	144(%esp), %eax
	movl	%eax, 16(%esp)
	movl	144(%esp), %eax
	addl	$2, %eax
	cmpl	%eax, 148(%esp)
	jbe	.L1142
	movl	48(%esp), %eax
	movl	144(%esp), %edi
	movl	144(%esp), %esi
	movzbl	1(%eax,%edi), %ebx
	movl	%eax, %edi
	movzbl	2(%eax,%esi), %eax
	sall	$4, %ebx
	sall	$8, %eax
	xorl	%ebx, %eax
	movzbl	(%edi,%esi), %ebx
	xorl	%eax, %ebx
.L1143:
	movzwl	%bx, %ebx
	testl	%ebx, %ebx
	je	.L1144
	movl	%ebx, %eax
	movl	%ebx, 56(%esp)
	xorl	%esi, %esi
	sall	$2, %eax
	xorl	%ecx, %ecx
	xorl	%ebp, %ebp
	movl	%eax, 12(%esp)
.L1146:
	movl	44(%esp), %edi
	movl	56(%esp), %eax
	movl	16(%esp), %edx
	movl	8(%edi), %ebx
	movl	%eax, (%ebx,%edx,4)
	movl	12(%esp), %eax
	addl	(%edi), %eax
	movl	%ebx, 60(%esp)
	movl	%eax, 80(%esp)
	movl	(%eax), %eax
	cmpl	$-1, %eax
	je	.L1311
	movl	4(%edi), %edi
	addl	%edx, %edx
	leal	(%edi,%edx), %ebx
	movl	%edi, 36(%esp)
	movw	%ax, (%ebx)
.L1154:
	movl	80(%esp), %eax
	movl	16(%esp), %edi
	movl	%edi, (%eax)
	movl	44(%esp), %eax
	movl	20(%eax), %edi
	movw	%cx, (%edi,%edx)
	movl	%edi, 52(%esp)
	movl	%eax, %edi
	movl	12(%eax), %eax
	movl	%eax, 92(%esp)
	addl	%esi, %eax
	movl	(%eax), %ecx
	cmpl	$-1, %ecx
	je	.L1155
	movl	16(%edi), %esi
	movw	%cx, (%esi,%edx)
.L1155:
	movl	16(%esp), %edi
	movzwl	(%ebx), %ecx
	movl	%edi, (%eax)
	movl	144(%esp), %eax
	leal	258(%eax), %ebx
	cmpl	148(%esp), %ebx
	jbe	.L1156
	movl	148(%esp), %ebx
.L1156:
	movl	48(%esp), %esi
	xorl	%edi, %edi
	xorl	%eax, %eax
	movl	16(%esp), %edx
	addl	152(%esp), %edx
	movl	$0, 12(%esp)
	movl	$0, 64(%esp)
	addl	%esi, %ebx
	addl	144(%esp), %esi
	cmpl	32(%esp), %edi
	movl	%ebx, 20(%esp)
	movl	%edx, 28(%esp)
	movl	%esi, 24(%esp)
	je	.L1158
	.p2align 4,,10
	.p2align 3
.L1313:
	movl	28(%esp), %esi
	subl	%ecx, %esi
	cmpl	16(%esp), %ecx
	ja	.L1160
	movl	16(%esp), %esi
	subl	%ecx, %esi
.L1160:
	cmpl	%esi, %eax
	ja	.L1158
	testl	%esi, %esi
	je	.L1161
	movl	144(%esp), %edx
	movl	24(%esp), %eax
	subl	%esi, %edx
	addl	48(%esp), %edx
	cmpl	$2, %ebp
	jbe	.L1162
	movl	52(%esp), %eax
	movzwl	(%eax,%ecx,2), %eax
	cmpl	%ebp, %eax
	jbe	.L1163
	movl	%ebp, %eax
.L1163:
	addl	%eax, %edx
	addl	24(%esp), %eax
.L1162:
	cmpl	%eax, 20(%esp)
	je	.L1164
	movzbl	(%eax), %ebx
	cmpb	%bl, (%edx)
	jne	.L1164
	movl	%ecx, 40(%esp)
	movl	20(%esp), %ebx
	jmp	.L1165
	.p2align 4,,10
	.p2align 3
.L1312:
	movzbl	(%eax), %ecx
	cmpb	%cl, (%edx)
	jne	.L1296
.L1165:
	addl	$1, %eax
	addl	$1, %edx
	cmpl	%eax, %ebx
	jne	.L1312
.L1296:
	movl	40(%esp), %ecx
	movl	%ebx, 20(%esp)
.L1164:
	subl	24(%esp), %eax
	cmpl	%eax, 12(%esp)
	jnb	.L1161
	cmpl	68(%esp), %eax
	movl	%eax, 12(%esp)
	movl	%esi, 64(%esp)
	jnb	.L1158
.L1161:
	movl	36(%esp), %eax
	leal	(%ecx,%ecx), %edx
	movzwl	(%eax,%ecx,2), %eax
	cmpl	%ecx, %eax
	je	.L1158
	cmpl	%ebp, 12(%esp)
	jbe	.L1166
	cmpl	$2, %ebp
	jbe	.L1166
	movl	44(%esp), %eax
	movl	52(%esp), %ebx
	movl	16(%eax), %eax
	movzwl	(%eax,%edx), %eax
	movzwl	(%ebx,%eax,2), %edx
	cmpl	%ebp, %edx
	jne	.L1158
.L1167:
	addl	$1, %edi
	cmpl	32(%esp), %edi
	movl	%eax, %ecx
	movl	%esi, %eax
	jne	.L1313
.L1158:
	cmpl	$2, 12(%esp)
	movl	164(%esp), %eax
	seta	%bl
	testl	%eax, %eax
	je	.L1169
	movl	96(%esp), %eax
	testl	%eax, %eax
	sete	%al
	andb	%bl, %al
	je	.L1170
	movl	12(%esp), %edi
	cmpl	$257, %edi
	ja	.L1236
	movl	100(%esp), %esi
	cmpl	%esi, %edi
	ja	.L1236
	movl	64(%esp), %eax
	movl	$1, 96(%esp)
	movl	%eax, 108(%esp)
	movl	12(%esp), %eax
	movl	%eax, 104(%esp)
	.p2align 4,,10
	.p2align 3
.L1171:
	addl	$1, 144(%esp)
	movl	144(%esp), %eax
	cmpl	%eax, 148(%esp)
	ja	.L1214
	jmp	.L1268
	.p2align 4,,10
	.p2align 3
.L1166:
	movl	60(%esp), %ebx
	movl	56(%esp), %ecx
	cmpl	%ecx, (%ebx,%eax,4)
	je	.L1167
	jmp	.L1158
.L1170:
	movl	96(%esp), %edi
	testl	%edi, %edi
	je	.L1169
	movl	144(%esp), %esi
	testl	%esi, %esi
	je	.L1228
	movl	104(%esp), %eax
	addl	$1, %eax
	cmpl	%eax, 12(%esp)
	ja	.L1314
	movl	80(%esp), %eax
	subl	$1, 144(%esp)
	movl	$0, 96(%esp)
	movl	$-1, (%eax)
	movl	92(%esp), %eax
	movl	$-1, (%eax,%ebp,4)
	movl	104(%esp), %eax
	cmpl	$2, %eax
	movl	%eax, 12(%esp)
	movl	108(%esp), %eax
	seta	%bl
	movl	%eax, 64(%esp)
	.p2align 4,,10
	.p2align 3
.L1169:
	movl	64(%esp), %eax
	cmpl	152(%esp), %eax
	jbe	.L1237
	testb	%bl, %bl
	jne	.L1235
.L1237:
	cmpl	$2, 12(%esp)
	jbe	.L1180
.L1176:
	movl	12(%esp), %eax
	cmpl	156(%esp), %eax
	jb	.L1180
	cmpl	$4096, 64(%esp)
	jbe	.L1232
	cmpl	$3, %eax
	jne	.L1232
.L1180:
	movl	48(%esp), %eax
	movl	144(%esp), %edi
	movzbl	(%eax,%edi), %edx
	movl	76(%esp), %eax
	movl	4(%eax), %edi
	movl	8(%eax), %eax
	leal	1(%edi), %ebx
	movl	%edi, 12(%esp)
	leal	0(,%ebx,4), %esi
	cmpl	%esi, %eax
	jnb	.L1182
	addl	%eax, %eax
	movl	%esi, %edi
	cmpl	%eax, %esi
	ja	.L1183
	leal	(%esi,%ebx,8), %edi
	shrl	%edi
.L1183:
	movl	%edx, 12(%esp)
	subl	$8, %esp
	.cfi_def_cfa_offset 152
	pushl	%edi
	.cfi_def_cfa_offset 156
	movl	88(%esp), %eax
	pushl	(%eax)
	.cfi_def_cfa_offset 160
	call	realloc
	addl	$16, %esp
	.cfi_def_cfa_offset 144
	testl	%eax, %eax
	movl	12(%esp), %edx
	je	.L1217
	movl	76(%esp), %ecx
	movl	%edi, 8(%ecx)
	movl	%eax, (%ecx)
	movl	%ecx, %edi
.L1184:
	movl	%ebx, 4(%edi)
	movl	%edx, -4(%eax,%esi)
	jmp	.L1171
.L1144:
	testl	%ebp, %ebp
	jne	.L1147
	movl	48(%esp), %ecx
	movl	144(%esp), %edx
	addl	%ecx, %edx
	addl	148(%esp), %ecx
	leal	258(%edx), %eax
	cmpl	%ecx, %eax
	jbe	.L1148
	movl	%ecx, %eax
.L1148:
	cmpl	%eax, %edx
	je	.L1224
	cmpb	$0, (%edx)
	jne	.L1224
	movl	%edx, %ecx
	jmp	.L1151
	.p2align 4,,10
	.p2align 3
.L1315:
	cmpb	$0, (%ecx)
	jne	.L1299
.L1151:
	addl	$1, %ecx
	cmpl	%eax, %ecx
	jne	.L1315
.L1299:
	subl	%edx, %ecx
	movl	%ecx, %edx
	movzwl	%dx, %eax
	movl	%edx, %ebp
	leal	0(,%eax,4), %esi
.L1300:
	movl	$0, 12(%esp)
	movl	$0, 56(%esp)
	jmp	.L1146
.L1142:
	movl	144(%esp), %eax
	cmpl	%eax, 148(%esp)
	jbe	.L1144
	movl	148(%esp), %edi
	subl	%eax, %edi
	je	.L1144
	movl	48(%esp), %esi
	movl	144(%esp), %ecx
	xorl	%ebx, %ebx
	xorl	%eax, %eax
	addl	%ecx, %esi
	.p2align 4,,10
	.p2align 3
.L1145:
	movzbl	(%esi,%eax), %edx
	leal	0(,%eax,8), %ecx
	addl	$1, %eax
	sall	%cl, %edx
	xorl	%edx, %ebx
	cmpl	%edi, %eax
	jne	.L1145
	jmp	.L1143
.L1182:
	movl	76(%esp), %eax
	movl	76(%esp), %edi
	movl	(%eax), %eax
	jmp	.L1184
.L1311:
	movl	4(%edi), %eax
	leal	(%edx,%edx), %edx
	movl	%eax, 36(%esp)
	leal	(%eax,%edx), %ebx
	jmp	.L1154
.L1147:
	movl	144(%esp), %eax
	addl	%ebp, %eax
	cmpl	%eax, 148(%esp)
	jb	.L1152
	movl	48(%esp), %edi
	cmpb	$0, -1(%edi,%eax)
	je	.L1301
.L1152:
	subl	$1, %ebp
.L1301:
	movzwl	%bp, %eax
	movl	%ebp, %ecx
	leal	0(,%eax,4), %esi
	jmp	.L1300
.L1236:
	movl	64(%esp), %edi
	cmpl	152(%esp), %edi
	movl	$0, 96(%esp)
	jbe	.L1176
	testb	%al, %al
	je	.L1176
.L1235:
	movl	$86, 84(%esp)
	jmp	.L1268
.L1232:
	movl	12(%esp), %esi
	movl	$28, %edx
	movl	$1, %ebx
	.p2align 4,,10
	.p2align 3
.L1181:
	leal	(%edx,%ebx), %eax
	shrl	%eax
	movl	LENGTHBASE(,%eax,4), %ecx
	leal	-1(%eax), %edi
	addl	$1, %eax
	cmpl	%ecx, %esi
	ja	.L1186
	movl	%ebx, %eax
.L1186:
	cmpl	%ecx, %esi
	movl	%eax, %ebx
	ja	.L1188
	movl	%edi, %edx
.L1188:
	cmpl	%edx, %eax
	jbe	.L1181
	cmpl	$28, %eax
	movl	%eax, %edi
	ja	.L1189
	movl	12(%esp), %esi
	cmpl	LENGTHBASE(,%eax,4), %esi
	jnb	.L1190
.L1189:
	leal	-1(%eax), %edi
.L1190:
	movl	12(%esp), %eax
	subl	LENGTHBASE(,%edi,4), %eax
	movl	$29, %edx
	movl	64(%esp), %esi
	movl	$1, %ebx
	movl	%ebp, 20(%esp)
	movl	%eax, 16(%esp)
	.p2align 4,,10
	.p2align 3
.L1195:
	leal	(%ebx,%edx), %eax
	shrl	%eax
	movl	DISTANCEBASE(,%eax,4), %ecx
	leal	-1(%eax), %ebp
	addl	$1, %eax
	cmpl	%ecx, %esi
	ja	.L1192
	movl	%ebx, %eax
.L1192:
	cmpl	%ecx, %esi
	movl	%eax, %ebx
	ja	.L1194
	movl	%ebp, %edx
.L1194:
	cmpl	%eax, %edx
	jnb	.L1195
	cmpl	$29, %eax
	movl	20(%esp), %ebp
	movl	%eax, %ebx
	ja	.L1196
	movl	64(%esp), %esi
	cmpl	DISTANCEBASE(,%eax,4), %esi
	jnb	.L1197
.L1196:
	movl	64(%esp), %esi
	leal	-1(%eax), %ebx
.L1197:
	leal	257(%edi), %edx
	movl	76(%esp), %edi
	subl	DISTANCEBASE(,%ebx,4), %esi
	movl	%edi, %eax
	call	uivector_push_back
	movl	16(%esp), %edx
	movl	%edi, %eax
	call	uivector_push_back
	movl	%ebx, %edx
	movl	%edi, %eax
	call	uivector_push_back
	movl	%esi, %edx
	movl	%edi, %eax
	call	uivector_push_back
	movl	44(%esp), %eax
	movl	12(%esp), %esi
	addl	144(%esp), %esi
	movl	%ebp, 12(%esp)
	movl	8(%eax), %edi
	movl	%esi, %edx
	movl	%esi, 64(%esp)
	movl	%edi, 28(%esp)
	movl	(%eax), %edi
	movl	%edi, 36(%esp)
	movl	20(%eax), %edi
	movl	12(%eax), %eax
	movl	%edi, 40(%esp)
	movl	144(%esp), %edi
	movl	%eax, 52(%esp)
	movl	148(%esp), %eax
	subl	144(%esp), %eax
	subl	$1, %eax
	movl	%eax, 20(%esp)
	movl	48(%esp), %eax
	movl	%eax, %esi
	leal	1(%eax,%edi), %edi
	addl	%edx, %eax
	movl	%eax, 24(%esp)
	movl	148(%esp), %eax
	addl	%esi, %eax
	movl	%eax, 60(%esp)
	jmp	.L1213
	.p2align 4,,10
	.p2align 3
.L1317:
	movzbl	1(%edi), %edx
	movzbl	2(%edi), %eax
	sall	$4, %edx
	sall	$8, %eax
	xorl	%edx, %eax
	movzbl	(%edi), %edx
	xorl	%eax, %edx
	movzwl	%dx, %edx
	testl	%edx, %edx
	je	.L1200
.L1318:
	xorl	%ebx, %ebx
	leal	0(,%edx,4), %eax
	xorl	%ebp, %ebp
	movw	%bx, 16(%esp)
	movl	$0, 12(%esp)
.L1202:
	addl	36(%esp), %eax
	movl	28(%esp), %ecx
	movl	%edx, (%ecx,%esi,4)
	leal	(%esi,%esi), %edx
	movl	(%eax), %ecx
	cmpl	$-1, %ecx
	je	.L1211
	movl	44(%esp), %ebx
	movl	4(%ebx), %ebx
	movw	%cx, (%ebx,%esi,2)
.L1211:
	addl	52(%esp), %ebp
	movzwl	16(%esp), %ecx
	movl	%esi, (%eax)
	movl	40(%esp), %eax
	movw	%cx, (%eax,%edx)
	movl	0(%ebp), %eax
	cmpl	$-1, %eax
	je	.L1212
	movl	44(%esp), %ebx
	movl	16(%ebx), %ecx
	movw	%ax, (%ecx,%edx)
.L1212:
	subl	$1, 20(%esp)
	addl	$1, %edi
	cmpl	24(%esp), %edi
	movl	%esi, 0(%ebp)
	je	.L1316
.L1213:
	movl	%edi, %eax
	subl	48(%esp), %eax
	movl	72(%esp), %esi
	movl	%eax, 16(%esp)
	andl	%eax, %esi
	movl	88(%esp), %eax
	addl	%edi, %eax
	cmpl	%eax, 148(%esp)
	ja	.L1317
	movl	16(%esp), %eax
	cmpl	%eax, 148(%esp)
	jbe	.L1200
	movl	20(%esp), %ecx
	testl	%ecx, %ecx
	je	.L1200
	leal	-1(%edi), %ebp
	movl	%esi, 56(%esp)
	xorl	%edx, %edx
	xorl	%eax, %eax
	movl	%ecx, %esi
	.p2align 4,,10
	.p2align 3
.L1201:
	movzbl	1(%ebp,%eax), %ebx
	leal	0(,%eax,8), %ecx
	addl	$1, %eax
	sall	%cl, %ebx
	xorl	%ebx, %edx
	cmpl	%eax, %esi
	jne	.L1201
	movzwl	%dx, %edx
	movl	56(%esp), %esi
	testl	%edx, %edx
	jne	.L1318
.L1200:
	movl	12(%esp), %ecx
	testl	%ecx, %ecx
	jne	.L1203
	movl	60(%esp), %ebx
	leal	258(%edi), %ecx
	movl	%edi, %eax
	cmpl	%ecx, %ebx
	movl	%ebx, %edx
	jbe	.L1204
	movl	%ecx, %edx
.L1204:
	cmpl	%edx, %edi
	je	.L1319
	cmpb	$0, (%edi)
	je	.L1208
	jmp	.L1234
	.p2align 4,,10
	.p2align 3
.L1320:
	cmpb	$0, (%eax)
	jne	.L1302
.L1208:
	addl	$1, %eax
	cmpl	%edx, %eax
	jne	.L1320
.L1302:
	subl	%edi, %eax
	movzwl	%ax, %ebp
	movw	%ax, 16(%esp)
	movl	%eax, 12(%esp)
	sall	$2, %ebp
.L1303:
	xorl	%eax, %eax
	xorl	%edx, %edx
	jmp	.L1202
.L1203:
	movl	16(%esp), %ebp
	addl	12(%esp), %ebp
	cmpl	%ebp, 148(%esp)
	jb	.L1209
	movl	48(%esp), %eax
	cmpb	$0, -1(%eax,%ebp)
	je	.L1304
.L1209:
	subl	$1, 12(%esp)
.L1304:
	movl	12(%esp), %eax
	movzwl	%ax, %ebp
	movw	%ax, 16(%esp)
	sall	$2, %ebp
	jmp	.L1303
.L1316:
	movl	64(%esp), %eax
	movl	12(%esp), %ebp
	subl	$1, %eax
	movl	%eax, 144(%esp)
	jmp	.L1171
.L1314:
	movl	48(%esp), %eax
	movl	144(%esp), %edi
	movzbl	-1(%eax,%edi), %edx
	movl	76(%esp), %eax
	call	uivector_push_back
	testl	%eax, %eax
	je	.L1217
	movl	$0, 96(%esp)
	jmp	.L1169
.L1217:
	movl	$83, 84(%esp)
	jmp	.L1268
.L1224:
	xorl	%esi, %esi
	xorl	%ecx, %ecx
	jmp	.L1300
.L1319:
	xorl	%edx, %edx
	xorl	%ebp, %ebp
	movl	$0, 12(%esp)
	movw	%dx, 16(%esp)
	jmp	.L1303
.L1234:
	xorl	%eax, %eax
	xorl	%ebp, %ebp
	movw	%ax, 16(%esp)
	jmp	.L1303
.L1228:
	movl	$81, 84(%esp)
	jmp	.L1268
	.cfi_endproc
.LFE80:
	.size	encodeLZ77, .-encodeLZ77
	.section	.text.unlikely
.LCOLDE23:
	.text
.LHOTE23:
	.section	.text.unlikely
.LCOLDB24:
	.text
.LHOTB24:
	.p2align 4,,15
	.type	lodepng_inflatev.isra.9, @function
lodepng_inflatev.isra.9:
.LFB234:
	.cfi_startproc
	pushl	%ebp
	.cfi_def_cfa_offset 8
	.cfi_offset 5, -8
	pushl	%edi
	.cfi_def_cfa_offset 12
	.cfi_offset 7, -12
	leal	0(,%ecx,8), %edi
	pushl	%esi
	.cfi_def_cfa_offset 16
	.cfi_offset 6, -16
	pushl	%ebx
	.cfi_def_cfa_offset 20
	.cfi_offset 3, -20
	subl	$188, %esp
	.cfi_def_cfa_offset 208
	cmpl	$2, %edi
	movl	%edi, (%esp)
	jbe	.L1451
	movl	%ecx, 32(%esp)
	movl	%edx, 24(%esp)
	xorl	%ebp, %ebp
	movl	%eax, 4(%esp)
	movl	$0, 12(%esp)
	movl	$2, %esi
	.p2align 4,,10
	.p2align 3
.L1323:
	movl	24(%esp), %edi
	movl	%ebp, %eax
	movl	%ebp, %ecx
	shrl	$3, %eax
	andl	$7, %ecx
	movl	%esi, %edx
	shrl	$3, %edx
	andl	$7, %esi
	leal	3(%ebp), %ebx
	movzbl	(%edi,%eax), %eax
	movzbl	(%edi,%edx), %edx
	sarl	%cl, %eax
	leal	1(%ebp), %ecx
	andl	$1, %eax
	movb	%al, 105(%esp)
	movl	%ecx, %eax
	andl	$7, %ecx
	shrl	$3, %eax
	movzbl	(%edi,%eax), %eax
	sarl	%cl, %eax
	movl	%esi, %ecx
	sarl	%cl, %edx
	andl	$1, %eax
	andl	$1, %edx
	leal	(%eax,%edx,2), %eax
	cmpl	$3, %eax
	je	.L1450
	testl	%eax, %eax
	je	.L1550
	cmpl	$1, %eax
	movl	$0, 116(%esp)
	movl	$0, 120(%esp)
	movl	$0, 124(%esp)
	movl	$0, 136(%esp)
	movl	$0, 140(%esp)
	movl	$0, 144(%esp)
	je	.L1561
	leal	17(%ebp), %eax
	cmpl	(%esp), %eax
	movl	$49, %esi
	movl	%eax, 20(%esp)
	jbe	.L1562
.L1338:
	movl	%ebx, %ebp
	xorl	%edx, %edx
	.p2align 4,,10
	.p2align 3
.L1398:
	subl	$12, %esp
	.cfi_def_cfa_offset 220
	pushl	%edx
	.cfi_def_cfa_offset 224
	call	free
	popl	%eax
	.cfi_def_cfa_offset 220
	pushl	132(%esp)
	.cfi_def_cfa_offset 224
	call	free
	popl	%edx
	.cfi_def_cfa_offset 220
	pushl	136(%esp)
	.cfi_def_cfa_offset 224
	call	free
	popl	%ecx
	.cfi_def_cfa_offset 220
	pushl	148(%esp)
	.cfi_def_cfa_offset 224
	call	free
	popl	%ebx
	.cfi_def_cfa_offset 220
	pushl	152(%esp)
	.cfi_def_cfa_offset 224
	call	free
	popl	%edi
	.cfi_def_cfa_offset 220
	pushl	156(%esp)
	.cfi_def_cfa_offset 224
	call	free
	addl	$16, %esp
	.cfi_def_cfa_offset 208
	testl	%esi, %esi
	jne	.L1563
.L1333:
	cmpb	$0, 105(%esp)
	jne	.L1564
	leal	2(%ebp), %esi
	cmpl	(%esp), %esi
	jb	.L1323
	jmp	.L1451
	.p2align 4,,10
	.p2align 3
.L1327:
	addl	$1, %ebx
.L1550:
	testb	$7, %bl
	jne	.L1327
	shrl	$3, %ebx
	leal	4(%ebx), %edi
	cmpl	%edi, 32(%esp)
	ja	.L1565
.L1451:
	movl	$52, %eax
.L1531:
	addl	$188, %esp
	.cfi_remember_state
	.cfi_def_cfa_offset 20
	popl	%ebx
	.cfi_restore 3
	.cfi_def_cfa_offset 16
	popl	%esi
	.cfi_restore 6
	.cfi_def_cfa_offset 12
	popl	%edi
	.cfi_restore 7
	.cfi_def_cfa_offset 8
	popl	%ebp
	.cfi_restore 5
	.cfi_def_cfa_offset 4
	ret
	.p2align 4,,10
	.p2align 3
.L1565:
	.cfi_restore_state
	movl	24(%esp), %esi
	movzbl	1(%esi,%ebx), %ebp
	movzbl	3(%esi,%ebx), %edx
	movl	%ebp, %eax
	movzbl	(%esi,%ebx), %ebp
	sall	$8, %edx
	sall	$8, %eax
	addl	%eax, %ebp
	movzbl	2(%esi,%ebx), %eax
	addl	%edx, %eax
	addl	%ebp, %eax
	cmpl	$65535, %eax
	je	.L1566
	addl	$188, %esp
	.cfi_remember_state
	.cfi_def_cfa_offset 20
	movl	$21, %eax
	popl	%ebx
	.cfi_restore 3
	.cfi_def_cfa_offset 16
	popl	%esi
	.cfi_restore 6
	.cfi_def_cfa_offset 12
	popl	%edi
	.cfi_restore 7
	.cfi_def_cfa_offset 8
	popl	%ebp
	.cfi_restore 5
	.cfi_def_cfa_offset 4
	ret
.L1561:
	.cfi_restore_state
	leal	116(%esp), %eax
	call	generateFixedLitLenTree
	subl	$12, %esp
	.cfi_def_cfa_offset 220
	pushl	$128
	.cfi_def_cfa_offset 224
	call	malloc
	addl	$16, %esp
	.cfi_def_cfa_offset 208
	testl	%eax, %eax
	movl	%eax, %ebp
	je	.L1335
	leal	128(%ebp), %edx
	.p2align 4,,10
	.p2align 3
.L1336:
	movl	$5, (%eax)
	addl	$4, %eax
	cmpl	%edx, %eax
	jne	.L1336
	subl	$12, %esp
	.cfi_def_cfa_offset 220
	pushl	$128
	.cfi_def_cfa_offset 224
	call	malloc
	movl	%eax, 160(%esp)
	addl	$16, %esp
	.cfi_def_cfa_offset 208
	testl	%eax, %eax
	je	.L1337
	movl	%eax, %edi
	movl	$32, %ecx
	movl	%ebp, %esi
	rep movsl
	leal	136(%esp), %eax
	movl	$32, 152(%esp)
	movl	$15, 148(%esp)
	call	HuffmanTree_makeFromLengths2
.L1337:
	subl	$12, %esp
	.cfi_def_cfa_offset 220
	pushl	%ebp
	.cfi_def_cfa_offset 224
	call	free
	addl	$16, %esp
	.cfi_def_cfa_offset 208
.L1335:
	movl	116(%esp), %edi
	movl	%ebx, %ebp
	movl	%edi, 8(%esp)
	movl	24(%esp), %edi
.L1449:
	cmpl	(%esp), %ebp
	jnb	.L1543
	.p2align 4,,10
	.p2align 3
.L1568:
	movl	%ebp, %eax
	movl	%ebp, %ecx
	movl	8(%esp), %esi
	shrl	$3, %eax
	andl	$7, %ecx
	movl	132(%esp), %ebx
	movzbl	(%edi,%eax), %eax
	addl	$1, %ebp
	movl	8(%esp), %edx
	sarl	%cl, %eax
	andl	$1, %eax
	movl	(%esi,%eax,4), %esi
	cmpl	%esi, %ebx
	jbe	.L1402
	jmp	.L1400
	.p2align 4,,10
	.p2align 3
.L1535:
	cmpl	(%esp), %ebp
	je	.L1545
	movl	%ebp, %eax
	movl	%ebp, %ecx
	addl	$1, %ebp
	shrl	$3, %eax
	andl	$7, %ecx
	movzbl	(%edi,%eax), %eax
	sarl	%cl, %eax
	andl	$1, %eax
	leal	(%eax,%esi,2), %eax
	movl	(%edx,%eax,4), %esi
	cmpl	%esi, %ebx
	ja	.L1400
.L1402:
	subl	%ebx, %esi
	cmpl	%esi, %ebx
	ja	.L1535
.L1545:
	movl	%edx, %edi
.L1428:
	cmpl	(%esp), %ebp
	movl	%edi, %edx
	movl	$11, %esi
	jbe	.L1398
	movl	$10, %esi
	jmp	.L1398
	.p2align 4,,10
	.p2align 3
.L1400:
	cmpl	$255, %esi
	ja	.L1567
	movl	12(%esp), %eax
	leal	1(%eax), %ebx
	movl	4(%esp), %eax
	movl	8(%eax), %eax
	cmpl	%eax, %ebx
	jbe	.L1406
	addl	%eax, %eax
	movl	%ebx, %edx
	cmpl	%eax, %ebx
	ja	.L1407
	leal	(%ebx,%ebx,2), %eax
	shrl	%eax
	movl	%eax, %edx
.L1407:
	subl	$8, %esp
	.cfi_def_cfa_offset 216
	pushl	%edx
	.cfi_def_cfa_offset 220
	movl	16(%esp), %eax
	movl	%edx, 20(%esp)
	pushl	(%eax)
	.cfi_def_cfa_offset 224
	call	realloc
	addl	$16, %esp
	.cfi_def_cfa_offset 208
	testl	%eax, %eax
	movl	8(%esp), %edx
	je	.L1555
	movl	4(%esp), %ecx
	movl	%edx, 8(%ecx)
	movl	%eax, (%ecx)
	movl	%ecx, %edx
.L1408:
	movl	%ebx, 4(%edx)
	movl	12(%esp), %edx
	movl	%esi, %ecx
	movb	%cl, (%eax,%edx)
.L1423:
	cmpl	(%esp), %ebp
	movl	116(%esp), %eax
	movl	%ebx, 12(%esp)
	movl	%eax, 8(%esp)
	jb	.L1568
.L1543:
	movl	8(%esp), %edi
	jmp	.L1428
	.p2align 4,,10
	.p2align 3
.L1406:
	movl	4(%esp), %eax
	movl	4(%esp), %edx
	movl	(%eax), %eax
	jmp	.L1408
.L1555:
	movl	116(%esp), %edx
	movl	$83, %esi
	jmp	.L1398
.L1567:
	leal	-257(%esi), %eax
	cmpl	$28, %eax
	ja	.L1409
	movl	LENGTHEXTRA(,%eax,4), %edx
	movl	LENGTHBASE(,%eax,4), %esi
	leal	(%edx,%ebp), %eax
	cmpl	(%esp), %eax
	movl	%esi, 16(%esp)
	ja	.L1471
	testl	%edx, %edx
	je	.L1472
	movl	%ebp, %ebx
	xorl	%esi, %esi
	.p2align 4,,10
	.p2align 3
.L1411:
	movl	%ebx, %edx
	movl	%ebx, %ecx
	shrl	$3, %edx
	andl	$7, %ecx
	movzbl	(%edi,%edx), %edx
	sarl	%cl, %edx
	movl	%ebx, %ecx
	addl	$1, %ebx
	andl	$1, %edx
	subl	%ebp, %ecx
	sall	%cl, %edx
	addl	%edx, %esi
	cmpl	%ebx, %eax
	jne	.L1411
.L1410:
	addl	16(%esp), %esi
	cmpl	(%esp), %eax
	movl	%esi, 16(%esp)
	jnb	.L1548
	movl	%eax, %edx
	movl	%eax, %ecx
	movl	136(%esp), %ebp
	shrl	$3, %edx
	andl	$7, %ecx
	movl	152(%esp), %esi
	movzbl	(%edi,%edx), %edx
	addl	$1, %eax
	sarl	%cl, %edx
	andl	$1, %edx
	movl	0(%ebp,%edx,4), %edx
	cmpl	%edx, %esi
	jbe	.L1415
	jmp	.L1413
	.p2align 4,,10
	.p2align 3
.L1537:
	cmpl	(%esp), %eax
	je	.L1548
	movl	%eax, %ecx
	shrl	$3, %ecx
	movzbl	(%edi,%ecx), %ebx
	movl	%eax, %ecx
	addl	$1, %eax
	andl	$7, %ecx
	sarl	%cl, %ebx
	andl	$1, %ebx
	leal	(%ebx,%edx,2), %edx
	movl	0(%ebp,%edx,4), %edx
	cmpl	%esi, %edx
	jb	.L1413
.L1415:
	subl	%esi, %edx
	cmpl	%esi, %edx
	jb	.L1537
.L1548:
	movl	8(%esp), %edi
	movl	%eax, %ebp
	movl	$18, %esi
	movl	%edi, %edx
	jmp	.L1398
	.p2align 4,,10
	.p2align 3
.L1413:
	cmpl	$29, %edx
	ja	.L1548
	movl	DISTANCEBASE(,%edx,4), %esi
	movl	DISTANCEEXTRA(,%edx,4), %edx
	leal	(%edx,%eax), %ebp
	cmpl	(%esp), %ebp
	movl	%esi, 20(%esp)
	ja	.L1474
	testl	%edx, %edx
	je	.L1475
	movl	%eax, %ebx
	xorl	%esi, %esi
	.p2align 4,,10
	.p2align 3
.L1420:
	movl	%ebx, %edx
	movl	%ebx, %ecx
	shrl	$3, %edx
	andl	$7, %ecx
	movzbl	(%edi,%edx), %edx
	sarl	%cl, %edx
	movl	%ebx, %ecx
	addl	$1, %ebx
	andl	$1, %edx
	subl	%eax, %ecx
	sall	%cl, %edx
	addl	%edx, %esi
	cmpl	%ebx, %ebp
	jne	.L1420
	addl	20(%esp), %esi
	movl	12(%esp), %eax
	cmpl	%eax, %esi
	ja	.L1476
.L1570:
	movl	%eax, %ebx
	subl	%esi, %ebx
	movl	%ebx, 8(%esp)
	movl	16(%esp), %ebx
	addl	%eax, %ebx
	movl	4(%esp), %eax
	movl	8(%eax), %eax
	cmpl	%eax, %ebx
	jbe	.L1421
	addl	%eax, %eax
	movl	%ebx, %edx
	cmpl	%eax, %ebx
	ja	.L1422
	leal	(%ebx,%ebx,2), %edx
	shrl	%edx
.L1422:
	subl	$8, %esp
	.cfi_def_cfa_offset 216
	pushl	%edx
	.cfi_def_cfa_offset 220
	movl	16(%esp), %eax
	movl	%edx, 32(%esp)
	pushl	(%eax)
	.cfi_def_cfa_offset 224
	call	realloc
	addl	$16, %esp
	.cfi_def_cfa_offset 208
	testl	%eax, %eax
	movl	20(%esp), %edx
	je	.L1555
	movl	4(%esp), %ecx
	movl	%edx, 8(%ecx)
	movl	%eax, (%ecx)
.L1421:
	cmpl	%esi, 16(%esp)
	movl	4(%esp), %eax
	movl	%ebx, 4(%eax)
	jbe	.L1569
	movl	16(%esp), %eax
	testl	%eax, %eax
	je	.L1478
	movl	%ebp, 8(%esp)
	movl	12(%esp), %eax
	movl	4(%esp), %ebp
	.p2align 4,,10
	.p2align 3
.L1507:
	movl	0(%ebp), %edx
	movl	%eax, %ecx
	subl	%esi, %ecx
	movzbl	(%edx,%ecx), %ecx
	movb	%cl, (%edx,%eax)
	addl	$1, %eax
	cmpl	%eax, %ebx
	jne	.L1507
	movl	8(%esp), %ebp
	jmp	.L1423
	.p2align 4,,10
	.p2align 3
.L1569:
	movl	4(%esp), %eax
	movl	12(%esp), %edx
	subl	$4, %esp
	.cfi_def_cfa_offset 212
	movl	(%eax), %eax
	addl	%eax, %edx
	addl	12(%esp), %eax
	pushl	20(%esp)
	.cfi_def_cfa_offset 216
	pushl	%eax
	.cfi_def_cfa_offset 220
	pushl	%edx
	.cfi_def_cfa_offset 224
	call	memcpy
	addl	$16, %esp
	.cfi_def_cfa_offset 208
	jmp	.L1423
.L1472:
	movl	%ebp, %eax
	xorl	%esi, %esi
	jmp	.L1410
.L1475:
	xorl	%esi, %esi
	addl	20(%esp), %esi
	movl	%eax, %ebp
	movl	12(%esp), %eax
	cmpl	%eax, %esi
	jbe	.L1570
.L1476:
	movl	8(%esp), %edi
	movl	$52, %esi
	movl	%edi, %edx
	jmp	.L1398
.L1478:
	movl	12(%esp), %ebx
	jmp	.L1423
.L1471:
	movl	8(%esp), %edi
	movl	$51, %esi
	movl	%edi, %edx
	jmp	.L1398
.L1474:
	movl	8(%esp), %edi
	movl	%eax, %ebp
	movl	$51, %esi
	movl	%edi, %edx
	jmp	.L1398
.L1562:
	movl	24(%esp), %edi
	movl	%ebx, %eax
	leal	13(%ebp), %ecx
	shrl	$3, %eax
	leal	14(%ebp), %edx
	movl	%ecx, %esi
	andl	$7, %ecx
	movzbl	(%edi,%eax), %eax
	shrl	$3, %esi
	movb	%al, 76(%esp)
	leal	4(%ebp), %eax
	movl	%eax, 80(%esp)
	shrl	$3, %eax
	movzbl	(%edi,%eax), %eax
	movb	%al, 84(%esp)
	leal	5(%ebp), %eax
	movl	%eax, 88(%esp)
	shrl	$3, %eax
	movzbl	(%edi,%eax), %eax
	movb	%al, 92(%esp)
	leal	6(%ebp), %eax
	movl	%eax, 96(%esp)
	shrl	$3, %eax
	movzbl	(%edi,%eax), %eax
	movb	%al, 106(%esp)
	leal	7(%ebp), %eax
	movl	%eax, 100(%esp)
	shrl	$3, %eax
	movzbl	(%edi,%eax), %eax
	movb	%al, 107(%esp)
	leal	8(%ebp), %eax
	movl	%eax, 108(%esp)
	shrl	$3, %eax
	movzbl	(%edi,%eax), %eax
	movb	%al, 16(%esp)
	leal	9(%ebp), %eax
	movl	%eax, 28(%esp)
	shrl	$3, %eax
	movzbl	(%edi,%eax), %eax
	movb	%al, 44(%esp)
	leal	10(%ebp), %eax
	movl	%eax, 48(%esp)
	shrl	$3, %eax
	movzbl	(%edi,%eax), %eax
	movb	%al, 56(%esp)
	leal	11(%ebp), %eax
	movl	%eax, 60(%esp)
	shrl	$3, %eax
	movzbl	(%edi,%eax), %eax
	movb	%al, 64(%esp)
	leal	12(%ebp), %eax
	movl	%eax, 68(%esp)
	shrl	$3, %eax
	movzbl	(%edi,%eax), %eax
	leal	16(%ebp), %edi
	movb	%al, 72(%esp)
	leal	15(%ebp), %eax
	movl	24(%esp), %ebp
	movzbl	0(%ebp,%esi), %esi
	sarl	%cl, %esi
	movl	%edx, %ecx
	andl	$7, %edx
	andl	$1, %esi
	shrl	$3, %ecx
	movl	%esi, %ebp
	movl	24(%esp), %esi
	movzbl	(%esi,%ecx), %esi
	movl	%edx, %ecx
	sarl	%cl, %esi
	movl	%esi, %edx
	andl	$1, %edx
	leal	4(%ebp,%edx,2), %esi
	movl	24(%esp), %ebp
	movl	%eax, %edx
	shrl	$3, %edx
	andl	$7, %eax
	movl	%eax, %ecx
	movzbl	0(%ebp,%edx), %edx
	movl	%edx, %eax
	sarl	%cl, %eax
	andl	$1, %eax
	leal	(%esi,%eax,4), %edx
	movl	%edi, %eax
	andl	$7, %edi
	shrl	$3, %eax
	movl	%edi, %ecx
	movzbl	0(%ebp,%eax), %eax
	sarl	%cl, %eax
	andl	$1, %eax
	leal	(%edx,%eax,8), %edi
	leal	(%edi,%edi,2), %eax
	addl	20(%esp), %eax
	cmpl	%eax, (%esp)
	jnb	.L1571
	movl	20(%esp), %ebx
	movl	$50, %esi
	jmp	.L1338
.L1564:
	xorl	%eax, %eax
	jmp	.L1531
.L1450:
	movl	$20, %eax
	jmp	.L1531
.L1566:
	movl	12(%esp), %eax
	leal	0(%ebp,%eax), %esi
	movl	4(%esp), %eax
	movl	8(%eax), %eax
	cmpl	%esi, %eax
	jnb	.L1329
	addl	%eax, %eax
	movl	%esi, %edx
	cmpl	%eax, %esi
	ja	.L1330
	leal	(%esi,%esi,2), %eax
	shrl	%eax
	movl	%eax, %edx
.L1330:
	subl	$8, %esp
	.cfi_def_cfa_offset 216
	pushl	%edx
	.cfi_def_cfa_offset 220
	movl	16(%esp), %eax
	movl	%edx, 20(%esp)
	pushl	(%eax)
	.cfi_def_cfa_offset 224
	call	realloc
	addl	$16, %esp
	.cfi_def_cfa_offset 208
	testl	%eax, %eax
	movl	8(%esp), %edx
	je	.L1572
	movl	4(%esp), %ecx
	movl	%edx, 8(%ecx)
	movl	%eax, (%ecx)
.L1329:
	leal	0(%ebp,%edi), %ecx
	cmpl	%ecx, 32(%esp)
	movl	4(%esp), %eax
	movl	%esi, 4(%eax)
	jnb	.L1573
	movl	$23, %eax
	jmp	.L1531
.L1571:
	movl	$0, 156(%esp)
	movl	$0, 160(%esp)
	subl	$12, %esp
	.cfi_def_cfa_offset 220
	movl	$0, 176(%esp)
	pushl	$76
	.cfi_def_cfa_offset 224
	call	malloc
	movl	%eax, 68(%esp)
	addl	$16, %esp
	.cfi_def_cfa_offset 208
	testl	%eax, %eax
	je	.L1458
	xorl	%ebp, %ebp
	movl	%ebx, 36(%esp)
	movl	20(%esp), %esi
	jmp	.L1342
	.p2align 4,,10
	.p2align 3
.L1575:
	leal	1(%esi), %edx
	leal	2(%esi), %eax
	movl	%edx, %ebx
	movl	%eax, 8(%esp)
	andl	$7, %edx
	shrl	$3, %ebx
	movl	%edx, %ecx
	movl	%ebx, %eax
	movl	24(%esp), %ebx
	movzbl	(%ebx,%eax), %eax
	sarl	%cl, %eax
	movl	8(%esp), %ecx
	movl	%eax, %edx
	andl	$1, %edx
	movl	%ecx, %eax
	andl	$7, %ecx
	shrl	$3, %eax
	movzbl	(%ebx,%eax), %eax
	sarl	%cl, %eax
	movl	%esi, %ecx
	andl	$1, %eax
	andl	$7, %ecx
	sall	$2, %eax
	leal	(%eax,%edx,2), %edx
	movl	%esi, %eax
	addl	$3, %esi
	shrl	$3, %eax
	movzbl	(%ebx,%eax), %eax
	movl	52(%esp), %ebx
	sarl	%cl, %eax
	andl	$1, %eax
	addl	%eax, %edx
	movl	CLCL_ORDER(,%ebp,4), %eax
	addl	$1, %ebp
	cmpl	$19, %ebp
	movl	%edx, (%ebx,%eax,4)
	je	.L1574
.L1342:
	cmpl	%ebp, %edi
	ja	.L1575
	movl	CLCL_ORDER(,%ebp,4), %eax
	movl	52(%esp), %ebx
	addl	$1, %ebp
	cmpl	$19, %ebp
	movl	$0, (%ebx,%eax,4)
	jne	.L1342
.L1574:
	movl	36(%esp), %ebx
	movl	%esi, 20(%esp)
	subl	$12, %esp
	.cfi_def_cfa_offset 220
	pushl	$76
	.cfi_def_cfa_offset 224
	call	malloc
	movl	%eax, 180(%esp)
	addl	$16, %esp
	.cfi_def_cfa_offset 208
	testl	%eax, %eax
	je	.L1458
	movl	%eax, %edi
	movl	52(%esp), %esi
	movl	%ebp, %ecx
	rep movsl
	leal	156(%esp), %eax
	movl	$19, 172(%esp)
	movl	$7, 168(%esp)
	call	HuffmanTree_makeFromLengths2
	testl	%eax, %eax
	movl	%eax, %esi
	je	.L1343
	movl	156(%esp), %eax
	movl	$0, 40(%esp)
	movl	$0, 36(%esp)
	movl	%eax, 28(%esp)
.L1339:
	subl	$12, %esp
	.cfi_def_cfa_offset 220
	pushl	64(%esp)
	.cfi_def_cfa_offset 224
	call	free
	popl	%eax
	.cfi_def_cfa_offset 220
	pushl	48(%esp)
	.cfi_def_cfa_offset 224
	call	free
	popl	%eax
	.cfi_def_cfa_offset 220
	pushl	52(%esp)
	.cfi_def_cfa_offset 224
	call	free
	popl	%eax
	.cfi_def_cfa_offset 220
	pushl	40(%esp)
	.cfi_def_cfa_offset 224
	call	free
	popl	%eax
	.cfi_def_cfa_offset 220
	pushl	172(%esp)
	.cfi_def_cfa_offset 224
	call	free
	popl	%eax
	.cfi_def_cfa_offset 220
	pushl	176(%esp)
	.cfi_def_cfa_offset 224
	call	free
	movl	132(%esp), %edi
	addl	$16, %esp
	.cfi_def_cfa_offset 208
	testl	%esi, %esi
	jne	.L1468
	movl	%edi, 8(%esp)
	movl	20(%esp), %ebp
	movl	24(%esp), %edi
	jmp	.L1449
.L1573:
	testl	%ebp, %ebp
	je	.L1454
	movl	12(%esp), %eax
	movl	4(%esp), %ebp
	movl	%ecx, 8(%esp)
	subl	%eax, %ebx
	addl	24(%esp), %ebx
.L1332:
	movzbl	4(%eax,%ebx), %ecx
	leal	1(%eax), %edx
	movl	0(%ebp), %edi
	cmpl	%edx, %esi
	movb	%cl, (%edi,%eax)
	movl	%edx, %eax
	jne	.L1332
	movl	8(%esp), %ecx
	movl	%ecx, %edi
.L1331:
	leal	0(,%edi,8), %ebp
	movl	%esi, 12(%esp)
	jmp	.L1333
.L1458:
	movl	$0, 28(%esp)
	movl	$0, 40(%esp)
	movl	$83, %esi
	movl	$0, 36(%esp)
	jmp	.L1339
.L1572:
	movb	$83, %al
	jmp	.L1531
.L1454:
	movl	12(%esp), %esi
	jmp	.L1331
.L1563:
	movl	%esi, %eax
	jmp	.L1531
.L1409:
	cmpl	$256, %esi
	movl	8(%esp), %edi
	jne	.L1428
	movl	%edi, %edx
	xorl	%esi, %esi
	jmp	.L1398
.L1468:
	movl	%edi, %edx
	movl	20(%esp), %ebp
	jmp	.L1398
.L1343:
	subl	$12, %esp
	.cfi_def_cfa_offset 220
	pushl	$1152
	.cfi_def_cfa_offset 224
	call	malloc
	movl	$128, (%esp)
	movl	%eax, 52(%esp)
	movl	%eax, %ebp
	call	malloc
	movl	%eax, 56(%esp)
	addl	$16, %esp
	.cfi_def_cfa_offset 208
	testl	%eax, %eax
	je	.L1553
	testl	%ebp, %ebp
	je	.L1553
	movl	36(%esp), %edi
	movl	%esi, %eax
	movl	$288, %ecx
	movzbl	106(%esp), %edx
	rep stosl
	movl	40(%esp), %edi
	movb	$32, %cl
	rep stosl
	movzbl	107(%esp), %eax
	movl	100(%esp), %ecx
	movl	40(%esp), %edi
	andl	$7, %ecx
	sarl	%cl, %eax
	movl	96(%esp), %ecx
	andl	$1, %eax
	sall	$4, %eax
	andl	$7, %ecx
	sarl	%cl, %edx
	movl	%ebx, %ecx
	andl	$1, %edx
	andl	$7, %ecx
	leal	(%eax,%edx,8), %eax
	movzbl	76(%esp), %edx
	sarl	%cl, %edx
	movl	88(%esp), %ecx
	andl	$1, %edx
	addl	%edx, %eax
	movzbl	92(%esp), %edx
	andl	$7, %ecx
	sarl	%cl, %edx
	movl	80(%esp), %ecx
	andl	$1, %edx
	leal	(%eax,%edx,4), %edx
	movzbl	84(%esp), %eax
	andl	$7, %ecx
	sarl	%cl, %eax
	movl	108(%esp), %ecx
	andl	$1, %eax
	leal	(%edx,%eax,2), %edx
	movzbl	16(%esp), %eax
	andl	$7, %ecx
	leal	257(%edx), %ebp
	sarl	%cl, %eax
	movl	28(%esp), %ecx
	andl	$1, %eax
	movl	%eax, %ebx
	movzbl	44(%esp), %eax
	andl	$7, %ecx
	sarl	%cl, %eax
	movl	48(%esp), %ecx
	andl	$1, %eax
	leal	1(%ebx,%eax,2), %ebx
	movzbl	56(%esp), %eax
	andl	$7, %ecx
	sarl	%cl, %eax
	movl	60(%esp), %ecx
	andl	$1, %eax
	leal	(%ebx,%eax,4), %ebx
	movzbl	64(%esp), %eax
	andl	$7, %ecx
	sarl	%cl, %eax
	movl	68(%esp), %ecx
	andl	$1, %eax
	leal	(%ebx,%eax,8), %ebx
	movzbl	72(%esp), %eax
	andl	$7, %ecx
	sarl	%cl, %eax
	andl	$1, %eax
	sall	$4, %eax
	addl	%eax, %ebx
	leal	0(,%edx,4), %eax
	leal	(%ebx,%ebp), %ecx
	movl	%edi, %ebx
	subl	%eax, %ebx
	movl	$1073741566, %eax
	movl	%ecx, 16(%esp)
	movl	156(%esp), %ecx
	subl	%edx, %eax
	movl	%ebx, 60(%esp)
	movl	%eax, 92(%esp)
	xorl	%ebx, %ebx
	movl	%ecx, 44(%esp)
	movl	%ecx, 28(%esp)
	movl	172(%esp), %ecx
	movl	%ecx, 48(%esp)
	leal	258(%edx), %ecx
	movl	%ecx, 88(%esp)
	movl	%esi, 56(%esp)
	movl	%edi, %esi
	movl	36(%esp), %eax
	movl	%eax, 8(%esp)
.L1392:
	movl	20(%esp), %edi
	movl	(%esp), %eax
	cmpl	%eax, %edi
	jnb	.L1349
	movl	24(%esp), %eax
	movl	%edi, %edx
	movl	%edi, %ecx
	shrl	$3, %edx
	andl	$7, %ecx
	movzbl	(%eax,%edx), %edx
	sarl	%cl, %edx
	andl	$1, %edx
	jmp	.L1552
.L1350:
	movl	48(%esp), %ecx
	subl	%ecx, %edx
	cmpl	%edx, %ecx
	jbe	.L1349
	cmpl	(%esp), %edi
	je	.L1349
	movl	24(%esp), %eax
	movl	%edi, %ecx
	shrl	$3, %ecx
	movzbl	(%eax,%ecx), %ecx
	movl	%ecx, %eax
	movl	%edi, %ecx
	andl	$7, %ecx
	sarl	%cl, %eax
	movl	%eax, %ecx
	andl	$1, %ecx
	leal	(%ecx,%edx,2), %edx
.L1552:
	movl	44(%esp), %eax
	addl	$1, %edi
	movl	(%eax,%edx,4), %edx
	cmpl	%edx, 48(%esp)
	jbe	.L1350
	cmpl	$15, %edx
	ja	.L1576
	cmpl	%ebx, %ebp
	jbe	.L1354
	movl	8(%esp), %eax
	movl	%edx, (%eax,%ebx,4)
.L1355:
	addl	$1, %ebx
	movl	%edi, 20(%esp)
.L1356:
	cmpl	16(%esp), %ebx
	jb	.L1392
	movl	56(%esp), %esi
	testl	%esi, %esi
	je	.L1393
	movl	44(%esp), %eax
	movl	%eax, 28(%esp)
	jmp	.L1339
	.p2align 4,,10
	.p2align 3
.L1349:
	movl	44(%esp), %eax
	movl	%eax, 28(%esp)
.L1427:
	cmpl	%edi, (%esp)
	sbbl	%esi, %esi
	addl	$11, %esi
.L1358:
	movl	%edi, 20(%esp)
	jmp	.L1339
	.p2align 4,,10
	.p2align 3
.L1576:
	cmpl	$16, %edx
	je	.L1577
	cmpl	$17, %edx
	je	.L1578
	cmpl	$18, %edx
	jne	.L1387
	leal	7(%edi), %eax
	cmpl	(%esp), %eax
	movl	%eax, 20(%esp)
	ja	.L1464
	leal	2(%edi), %ecx
	leal	1(%edi), %edx
	movl	%edi, %eax
	shrl	$3, %eax
	movl	%ecx, 68(%esp)
	leal	4(%edi), %ecx
	movl	%edx, 64(%esp)
	leal	3(%edi), %edx
	movl	%ecx, 76(%esp)
	leal	6(%edi), %ecx
	movl	%edx, 72(%esp)
	leal	5(%edi), %edx
	andl	$7, %edi
	movl	%ecx, 84(%esp)
	movl	24(%esp), %ecx
	movl	%edx, 80(%esp)
	movzbl	(%ecx,%eax), %edx
	movl	%edi, %ecx
	movl	64(%esp), %eax
	sarl	%cl, %edx
	movl	24(%esp), %ecx
	andl	$1, %edx
	leal	11(%ebx,%edx), %edi
	movl	%eax, %edx
	shrl	$3, %edx
	movzbl	(%ecx,%edx), %edx
	movl	%eax, %ecx
	movl	68(%esp), %eax
	andl	$7, %ecx
	sarl	%cl, %edx
	movl	24(%esp), %ecx
	andl	$1, %edx
	leal	(%edi,%edx,2), %edi
	movl	%eax, %edx
	shrl	$3, %edx
	movzbl	(%ecx,%edx), %edx
	movl	%eax, %ecx
	movl	72(%esp), %eax
	andl	$7, %ecx
	sarl	%cl, %edx
	movl	24(%esp), %ecx
	andl	$1, %edx
	leal	(%edi,%edx,4), %edi
	movl	%eax, %edx
	shrl	$3, %edx
	movzbl	(%ecx,%edx), %edx
	movl	%eax, %ecx
	movl	76(%esp), %eax
	andl	$7, %ecx
	sarl	%cl, %edx
	movl	24(%esp), %ecx
	andl	$1, %edx
	leal	(%edi,%edx,8), %edi
	movl	%eax, %edx
	shrl	$3, %edx
	movzbl	(%ecx,%edx), %edx
	movl	%eax, %ecx
	movl	80(%esp), %eax
	andl	$7, %ecx
	sarl	%cl, %edx
	movl	24(%esp), %ecx
	andl	$1, %edx
	sall	$4, %edx
	addl	%edx, %edi
	movl	%eax, %edx
	shrl	$3, %edx
	movzbl	(%ecx,%edx), %edx
	movl	%eax, %ecx
	movl	84(%esp), %eax
	andl	$7, %ecx
	sarl	%cl, %edx
	movl	24(%esp), %ecx
	andl	$1, %edx
	sall	$5, %edx
	addl	%edx, %edi
	movl	%eax, %edx
	shrl	$3, %edx
	movzbl	(%ecx,%edx), %edx
	movl	%eax, %ecx
	movl	8(%esp), %eax
	andl	$7, %ecx
	sarl	%cl, %edx
	andl	$1, %edx
	sall	$6, %edx
	addl	%edx, %edi
.L1388:
	cmpl	%ebx, %ebp
	jbe	.L1389
	movl	$0, (%eax,%ebx,4)
.L1390:
	addl	$1, %ebx
	cmpl	%edi, %ebx
	je	.L1579
	cmpl	16(%esp), %ebx
	jne	.L1388
	movl	%eax, 8(%esp)
	movl	$15, 56(%esp)
	jmp	.L1356
	.p2align 4,,10
	.p2align 3
.L1389:
	movl	60(%esp), %edx
	movl	$0, -1028(%edx,%ebx,4)
	jmp	.L1390
.L1464:
	movl	$50, %esi
	jmp	.L1358
.L1387:
	cmpl	$-1, %edx
	movl	$16, %esi
	jne	.L1358
	jmp	.L1427
.L1578:
	leal	3(%edi), %eax
	cmpl	(%esp), %eax
	movl	%eax, 20(%esp)
	ja	.L1464
	leal	1(%edi), %edx
	movl	%edi, %eax
	shrl	$3, %eax
	movl	%edx, 64(%esp)
	leal	2(%edi), %edx
	andl	$7, %edi
	movl	%edi, %ecx
	movl	%edx, 68(%esp)
	movl	%eax, %edx
	movl	24(%esp), %eax
	movzbl	(%eax,%edx), %edx
	sarl	%cl, %edx
	movl	64(%esp), %ecx
	movl	%edx, %edi
	andl	$1, %edi
	movl	%ecx, %edx
	andl	$7, %ecx
	shrl	$3, %edx
	movzbl	(%eax,%edx), %edx
	sarl	%cl, %edx
	movl	68(%esp), %ecx
	andl	$1, %edx
	leal	3(%edi,%edx,2), %edi
	movl	%ecx, %edx
	andl	$7, %ecx
	shrl	$3, %edx
	movzbl	(%eax,%edx), %edx
	sarl	%cl, %edx
	andl	$1, %edx
	cmpl	%ebx, %ebp
	leal	(%edi,%edx,4), %ecx
	ja	.L1364
	movl	%ebx, %edx
	subl	%ebp, %edx
	movl	$0, (%esi,%edx,4)
.L1365:
	leal	1(%ebx), %edx
	cmpl	%edx, 16(%esp)
	jbe	.L1366
	cmpl	%edx, %ebp
	ja	.L1367
	subl	%ebp, %edx
	movl	$0, (%esi,%edx,4)
.L1368:
	leal	2(%ebx), %edx
	cmpl	%edx, 16(%esp)
	jbe	.L1366
	cmpl	%edx, %ebp
	ja	.L1369
	subl	%ebp, %edx
	movl	$0, (%esi,%edx,4)
.L1370:
	cmpl	$3, %ecx
	leal	3(%ebx), %edx
	je	.L1371
	cmpl	%edx, 16(%esp)
	jbe	.L1366
	cmpl	%edx, %ebp
	ja	.L1372
	subl	%ebp, %edx
	movl	$0, (%esi,%edx,4)
.L1373:
	cmpl	$4, %ecx
	leal	4(%ebx), %edx
	je	.L1371
	cmpl	%edx, 16(%esp)
	jbe	.L1366
	cmpl	%edx, %ebp
	ja	.L1374
	subl	%ebp, %edx
	movl	$0, (%esi,%edx,4)
.L1375:
	cmpl	$5, %ecx
	leal	5(%ebx), %edx
	je	.L1371
	cmpl	16(%esp), %edx
	jnb	.L1366
	cmpl	%edx, %ebp
	ja	.L1376
	subl	%ebp, %edx
	movl	$0, (%esi,%edx,4)
.L1377:
	cmpl	$6, %ecx
	leal	6(%ebx), %edx
	je	.L1371
	cmpl	16(%esp), %edx
	jnb	.L1366
	cmpl	%edx, %ebp
	ja	.L1378
	subl	%ebp, %edx
	movl	$0, (%esi,%edx,4)
.L1379:
	cmpl	$7, %ecx
	leal	7(%ebx), %edx
	je	.L1371
	cmpl	16(%esp), %edx
	jnb	.L1366
	cmpl	%edx, %ebp
	ja	.L1380
	subl	%ebp, %edx
	movl	$0, (%esi,%edx,4)
.L1381:
	cmpl	$8, %ecx
	leal	8(%ebx), %edx
	je	.L1371
	cmpl	16(%esp), %edx
	jnb	.L1366
	cmpl	%edx, %ebp
	ja	.L1382
	subl	%ebp, %edx
	movl	$0, (%esi,%edx,4)
.L1383:
	cmpl	$10, %ecx
	leal	9(%ebx), %edx
	jne	.L1371
	cmpl	16(%esp), %edx
	jnb	.L1366
	cmpl	%edx, %ebp
	jbe	.L1385
	movl	8(%esp), %eax
	movl	$0, (%eax,%edx,4)
.L1386:
	leal	10(%ebx), %edx
.L1371:
	movl	%edx, %ebx
	jmp	.L1356
.L1369:
	movl	8(%esp), %eax
	movl	$0, (%eax,%edx,4)
	jmp	.L1370
.L1367:
	movl	8(%esp), %eax
	movl	$0, (%eax,%edx,4)
	jmp	.L1368
.L1366:
	movl	%edx, %ebx
	movl	$14, 56(%esp)
	jmp	.L1356
.L1364:
	movl	8(%esp), %eax
	movl	$0, (%eax,%ebx,4)
	jmp	.L1365
.L1385:
	subl	%ebp, %edx
	movl	$0, (%esi,%edx,4)
	jmp	.L1386
.L1553:
	movl	156(%esp), %eax
	movl	$83, %esi
	movl	%eax, 28(%esp)
	jmp	.L1339
.L1579:
	movl	%eax, 8(%esp)
	jmp	.L1356
.L1393:
	movl	36(%esp), %eax
	movl	1024(%eax), %edx
	testl	%edx, %edx
	jne	.L1394
	movl	44(%esp), %eax
	movl	$64, %esi
	movl	%eax, 28(%esp)
	jmp	.L1339
.L1577:
	testl	%ebx, %ebx
	je	.L1461
	leal	2(%edi), %eax
	cmpl	(%esp), %eax
	movl	%eax, 20(%esp)
	ja	.L1464
	leal	1(%edi), %edx
	movl	%edi, %eax
	andl	$7, %edi
	shrl	$3, %eax
	movl	%edi, %ecx
	movl	%edx, 64(%esp)
	movl	%eax, %edx
	movl	24(%esp), %eax
	movzbl	(%eax,%edx), %edx
	sarl	%cl, %edx
	movl	64(%esp), %ecx
	movl	%edx, %edi
	andl	$1, %edi
	movl	%ecx, %edx
	andl	$7, %ecx
	shrl	$3, %edx
	movzbl	(%eax,%edx), %edx
	sarl	%cl, %edx
	andl	$1, %edx
	cmpl	88(%esp), %ebx
	leal	3(%edi,%edx,2), %edi
	jnb	.L1359
	movl	8(%esp), %eax
	leal	1073741823(%ebx), %edx
	movl	(%eax,%edx,4), %ecx
.L1360:
	cmpl	%ebx, %ebp
	ja	.L1433
	movl	%ebx, %edx
	subl	%ebp, %edx
	movl	%ecx, (%esi,%edx,4)
.L1434:
	leal	1(%ebx), %edx
	cmpl	16(%esp), %edx
	jnb	.L1435
	cmpl	%edx, %ebp
	ja	.L1436
	subl	%ebp, %edx
	movl	%ecx, (%esi,%edx,4)
.L1437:
	leal	2(%ebx), %edx
	cmpl	16(%esp), %edx
	jnb	.L1435
	cmpl	%edx, %ebp
	ja	.L1438
	subl	%ebp, %edx
	movl	%ecx, (%esi,%edx,4)
.L1439:
	cmpl	$3, %edi
	leal	3(%ebx), %edx
	je	.L1371
	cmpl	16(%esp), %edx
	jnb	.L1435
	cmpl	%edx, %ebp
	ja	.L1441
	subl	%ebp, %edx
	movl	%ecx, (%esi,%edx,4)
.L1442:
	cmpl	$4, %edi
	leal	4(%ebx), %edx
	je	.L1371
	cmpl	16(%esp), %edx
	jnb	.L1435
	cmpl	%edx, %ebp
	ja	.L1443
	subl	%ebp, %edx
	movl	%ecx, (%esi,%edx,4)
.L1444:
	cmpl	$6, %edi
	leal	5(%ebx), %edx
	jne	.L1371
	cmpl	%edx, 16(%esp)
	jbe	.L1435
	cmpl	%edx, %ebp
	jbe	.L1361
	movl	8(%esp), %eax
	movl	%ecx, (%eax,%edx,4)
.L1362:
	leal	6(%ebx), %edx
	jmp	.L1371
.L1378:
	movl	8(%esp), %eax
	movl	$0, (%eax,%edx,4)
	jmp	.L1379
.L1382:
	movl	8(%esp), %eax
	movl	$0, (%eax,%edx,4)
	jmp	.L1383
.L1380:
	movl	8(%esp), %eax
	movl	$0, (%eax,%edx,4)
	jmp	.L1381
.L1354:
	movl	%ebx, %ecx
	subl	%ebp, %ecx
	movl	%edx, (%esi,%ecx,4)
	jmp	.L1355
.L1394:
	subl	$12, %esp
	.cfi_def_cfa_offset 220
	pushl	$1152
	.cfi_def_cfa_offset 224
	call	malloc
	movl	%eax, 140(%esp)
	addl	$16, %esp
	.cfi_def_cfa_offset 208
	testl	%eax, %eax
	je	.L1553
	movl	%eax, %edi
	movl	36(%esp), %esi
	movl	$288, %ecx
	rep movsl
	leal	116(%esp), %eax
	movl	$288, 132(%esp)
	movl	$15, 128(%esp)
	call	HuffmanTree_makeFromLengths2
	testl	%eax, %eax
	movl	%eax, %esi
	je	.L1580
.L1554:
	movl	156(%esp), %eax
	movl	%eax, 28(%esp)
	jmp	.L1339
.L1374:
	movl	8(%esp), %eax
	movl	$0, (%eax,%edx,4)
	jmp	.L1375
.L1376:
	movl	8(%esp), %eax
	movl	$0, (%eax,%edx,4)
	jmp	.L1377
.L1361:
	subl	%ebp, %edx
	movl	%ecx, (%esi,%edx,4)
	jmp	.L1362
.L1372:
	movl	8(%esp), %eax
	movl	$0, (%eax,%edx,4)
	jmp	.L1373
.L1580:
	subl	$12, %esp
	.cfi_def_cfa_offset 220
	pushl	$128
	.cfi_def_cfa_offset 224
	call	malloc
	movl	%eax, 160(%esp)
	addl	$16, %esp
	.cfi_def_cfa_offset 208
	testl	%eax, %eax
	je	.L1553
	movl	%eax, %edi
	movl	40(%esp), %esi
	movl	$32, %ecx
	rep movsl
	leal	136(%esp), %eax
	movl	$32, 152(%esp)
	movl	$15, 148(%esp)
	call	HuffmanTree_makeFromLengths2
	movl	%eax, %esi
	jmp	.L1554
.L1443:
	movl	8(%esp), %eax
	movl	%ecx, (%eax,%edx,4)
	jmp	.L1444
.L1441:
	movl	8(%esp), %eax
	movl	%ecx, (%eax,%edx,4)
	jmp	.L1442
.L1438:
	movl	8(%esp), %eax
	movl	%ecx, (%eax,%edx,4)
	jmp	.L1439
.L1436:
	movl	8(%esp), %eax
	movl	%ecx, (%eax,%edx,4)
	jmp	.L1437
.L1435:
	movl	%edx, %ebx
	movl	$13, 56(%esp)
	jmp	.L1356
.L1433:
	movl	8(%esp), %eax
	movl	%ecx, (%eax,%ebx,4)
	jmp	.L1434
.L1359:
	movl	92(%esp), %eax
	leal	(%eax,%ebx), %edx
	movl	(%esi,%edx,4), %ecx
	jmp	.L1360
.L1461:
	movl	$54, %esi
	jmp	.L1358
	.cfi_endproc
.LFE234:
	.size	lodepng_inflatev.isra.9, .-lodepng_inflatev.isra.9
	.section	.text.unlikely
.LCOLDE24:
	.text
.LHOTE24:
	.section	.text.unlikely
.LCOLDB25:
	.text
.LHOTB25:
	.p2align 4,,15
	.type	inflate, @function
inflate:
.LFB71:
	.cfi_startproc
	pushl	%ebp
	.cfi_def_cfa_offset 8
	.cfi_offset 5, -8
	pushl	%edi
	.cfi_def_cfa_offset 12
	.cfi_offset 7, -12
	movl	%eax, %ebp
	pushl	%esi
	.cfi_def_cfa_offset 16
	.cfi_offset 6, -16
	pushl	%ebx
	.cfi_def_cfa_offset 20
	.cfi_offset 3, -20
	movl	%edx, %edi
	movl	%ecx, %edx
	subl	$28, %esp
	.cfi_def_cfa_offset 48
	movl	52(%esp), %esi
	movl	8(%esi), %ebx
	testl	%ebx, %ebx
	je	.L1582
	subl	$12, %esp
	.cfi_def_cfa_offset 60
	pushl	%esi
	.cfi_def_cfa_offset 64
	pushl	64(%esp)
	.cfi_def_cfa_offset 68
	pushl	%ecx
	.cfi_def_cfa_offset 72
	pushl	%edi
	.cfi_def_cfa_offset 76
	pushl	%eax
	.cfi_def_cfa_offset 80
	call	*%ebx
	addl	$32, %esp
	.cfi_def_cfa_offset 48
	addl	$28, %esp
	.cfi_remember_state
	.cfi_def_cfa_offset 20
	popl	%ebx
	.cfi_restore 3
	.cfi_def_cfa_offset 16
	popl	%esi
	.cfi_restore 6
	.cfi_def_cfa_offset 12
	popl	%edi
	.cfi_restore 7
	.cfi_def_cfa_offset 8
	popl	%ebp
	.cfi_restore 5
	.cfi_def_cfa_offset 4
	ret
	.p2align 4,,10
	.p2align 3
.L1582:
	.cfi_restore_state
	movl	0(%ebp), %ecx
	movl	(%edi), %eax
	movl	%ecx, 4(%esp)
	movl	48(%esp), %ecx
	movl	%eax, 8(%esp)
	movl	%eax, 12(%esp)
	leal	4(%esp), %eax
	call	lodepng_inflatev.isra.9
	movl	4(%esp), %edx
	movl	%edx, 0(%ebp)
	movl	8(%esp), %edx
	movl	%edx, (%edi)
	addl	$28, %esp
	.cfi_def_cfa_offset 20
	popl	%ebx
	.cfi_restore 3
	.cfi_def_cfa_offset 16
	popl	%esi
	.cfi_restore 6
	.cfi_def_cfa_offset 12
	popl	%edi
	.cfi_restore 7
	.cfi_def_cfa_offset 8
	popl	%ebp
	.cfi_restore 5
	.cfi_def_cfa_offset 4
	ret
	.cfi_endproc
.LFE71:
	.size	inflate, .-inflate
	.section	.text.unlikely
.LCOLDE25:
	.text
.LHOTE25:
	.section	.text.unlikely
.LCOLDB26:
	.text
.LHOTB26:
	.p2align 4,,15
	.type	zlib_decompress, @function
zlib_decompress:
.LFB91:
	.cfi_startproc
	pushl	%ebp
	.cfi_def_cfa_offset 8
	.cfi_offset 5, -8
	pushl	%edi
	.cfi_def_cfa_offset 12
	.cfi_offset 7, -12
	movl	%edx, %ebp
	pushl	%esi
	.cfi_def_cfa_offset 16
	.cfi_offset 6, -16
	pushl	%ebx
	.cfi_def_cfa_offset 20
	.cfi_offset 3, -20
	movl	%ecx, %esi
	subl	$28, %esp
	.cfi_def_cfa_offset 48
	movl	52(%esp), %ebx
	movl	%eax, 8(%esp)
	movl	48(%esp), %edi
	movl	4(%ebx), %eax
	testl	%eax, %eax
	je	.L1586
	subl	$12, %esp
	.cfi_def_cfa_offset 60
	pushl	%ebx
	.cfi_def_cfa_offset 64
	pushl	%edi
	.cfi_def_cfa_offset 68
	pushl	%ecx
	.cfi_def_cfa_offset 72
	pushl	%edx
	.cfi_def_cfa_offset 76
	pushl	36(%esp)
	.cfi_def_cfa_offset 80
	call	*%eax
	addl	$32, %esp
	.cfi_def_cfa_offset 48
.L1587:
	addl	$28, %esp
	.cfi_remember_state
	.cfi_def_cfa_offset 20
	popl	%ebx
	.cfi_restore 3
	.cfi_def_cfa_offset 16
	popl	%esi
	.cfi_restore 6
	.cfi_def_cfa_offset 12
	popl	%edi
	.cfi_restore 7
	.cfi_def_cfa_offset 8
	popl	%ebp
	.cfi_restore 5
	.cfi_def_cfa_offset 4
	ret
	.p2align 4,,10
	.p2align 3
.L1586:
	.cfi_restore_state
	cmpl	$1, %edi
	jbe	.L1588
	movzbl	(%ecx), %eax
	movzbl	1(%ecx), %ecx
	movl	%ecx, %edx
	movb	%cl, 15(%esp)
	movzbl	%al, %ecx
	sall	$8, %ecx
	movb	%al, 14(%esp)
	movzbl	%dl, %eax
	addl	%eax, %ecx
	movl	$-2078209981, %edx
	movl	%ecx, %eax
	imull	%edx
	addl	%ecx, %edx
	sarl	$4, %edx
	movl	%edx, %eax
	sall	$5, %eax
	subl	%edx, %eax
	movl	%eax, %edx
	movl	$24, %eax
	cmpl	%edx, %ecx
	jne	.L1587
	movzbl	14(%esp), %eax
	testb	%al, %al
	js	.L1590
	andl	$15, %eax
	cmpb	$8, %al
	jne	.L1590
	testb	$32, 15(%esp)
	movl	$26, %eax
	jne	.L1587
	leal	-2(%edi), %eax
	subl	$8, %esp
	.cfi_def_cfa_offset 56
	leal	2(%esi), %ecx
	pushl	%ebx
	.cfi_def_cfa_offset 60
	movl	%ebp, %edx
	pushl	%eax
	.cfi_def_cfa_offset 64
	movl	24(%esp), %eax
	call	inflate
	addl	$16, %esp
	.cfi_def_cfa_offset 48
	testl	%eax, %eax
	jne	.L1587
	movl	%ebx, 52(%esp)
	movl	%edi, 48(%esp)
	movl	%esi, %ecx
	movl	8(%esp), %eax
	addl	$28, %esp
	.cfi_remember_state
	.cfi_def_cfa_offset 20
	movl	%ebp, %edx
	popl	%ebx
	.cfi_restore 3
	.cfi_def_cfa_offset 16
	popl	%esi
	.cfi_restore 6
	.cfi_def_cfa_offset 12
	popl	%edi
	.cfi_restore 7
	.cfi_def_cfa_offset 8
	popl	%ebp
	.cfi_restore 5
	.cfi_def_cfa_offset 4
	jmp	lodepng_zlib_decompress.part.12
	.p2align 4,,10
	.p2align 3
.L1588:
	.cfi_restore_state
	movl	$53, %eax
	jmp	.L1587
	.p2align 4,,10
	.p2align 3
.L1590:
	movl	$25, %eax
	jmp	.L1587
	.cfi_endproc
.LFE91:
	.size	zlib_decompress, .-zlib_decompress
	.section	.text.unlikely
.LCOLDE26:
	.text
.LHOTE26:
	.section	.text.unlikely
.LCOLDB27:
	.text
.LHOTB27:
	.p2align 4,,15
	.globl	lodepng_read32bitInt
	.type	lodepng_read32bitInt, @function
lodepng_read32bitInt:
.LFB39:
	.cfi_startproc
	movl	4(%esp), %edx
	movzbl	(%edx), %eax
	sall	$24, %eax
	movl	%eax, %ecx
	movzbl	1(%edx), %eax
	sall	$16, %eax
	orl	%ecx, %eax
	movzbl	3(%edx), %ecx
	movzbl	2(%edx), %edx
	orl	%ecx, %eax
	sall	$8, %edx
	orl	%edx, %eax
	ret
	.cfi_endproc
.LFE39:
	.size	lodepng_read32bitInt, .-lodepng_read32bitInt
	.section	.text.unlikely
.LCOLDE27:
	.text
.LHOTE27:
	.section	.rodata.str1.1,"aMS",@progbits,1
.LC28:
	.string	"rb"
	.section	.text.unlikely
.LCOLDB29:
	.text
.LHOTB29:
	.p2align 4,,15
	.globl	lodepng_load_file
	.type	lodepng_load_file, @function
lodepng_load_file:
.LFB44:
	.cfi_startproc
	pushl	%edi
	.cfi_def_cfa_offset 8
	.cfi_offset 7, -8
	pushl	%esi
	.cfi_def_cfa_offset 12
	.cfi_offset 6, -12
	pushl	%ebx
	.cfi_def_cfa_offset 16
	.cfi_offset 3, -16
	movl	24(%esp), %edi
	subl	$8, %esp
	.cfi_def_cfa_offset 24
	pushl	$.LC28
	.cfi_def_cfa_offset 28
	pushl	%edi
	.cfi_def_cfa_offset 32
	call	fopen
	addl	$16, %esp
	.cfi_def_cfa_offset 16
	testl	%eax, %eax
	movl	%eax, %ebx
	je	.L1616
	subl	$4, %esp
	.cfi_def_cfa_offset 20
	pushl	$2
	.cfi_def_cfa_offset 24
	pushl	$0
	.cfi_def_cfa_offset 28
	pushl	%eax
	.cfi_def_cfa_offset 32
	call	fseek
	addl	$16, %esp
	.cfi_def_cfa_offset 16
	testl	%eax, %eax
	jne	.L1598
	subl	$12, %esp
	.cfi_def_cfa_offset 28
	pushl	%ebx
	.cfi_def_cfa_offset 32
	call	ftell
	addl	$16, %esp
	.cfi_def_cfa_offset 16
	cmpl	$2147483647, %eax
	movl	%eax, %esi
	je	.L1598
	subl	$12, %esp
	.cfi_def_cfa_offset 28
	pushl	%ebx
	.cfi_def_cfa_offset 32
	call	fclose
	addl	$16, %esp
	.cfi_def_cfa_offset 16
	testl	%esi, %esi
	js	.L1616
	movl	20(%esp), %eax
	subl	$12, %esp
	.cfi_def_cfa_offset 28
	movl	%esi, (%eax)
	pushl	%esi
	.cfi_def_cfa_offset 32
	call	malloc
	movl	%eax, %ebx
	movl	32(%esp), %eax
	addl	$16, %esp
	.cfi_def_cfa_offset 16
	testl	%ebx, %ebx
	movl	%ebx, (%eax)
	jne	.L1604
	testl	%esi, %esi
	movl	$83, %eax
	jne	.L1611
.L1604:
	subl	$8, %esp
	.cfi_def_cfa_offset 24
	pushl	$.LC28
	.cfi_def_cfa_offset 28
	pushl	%edi
	.cfi_def_cfa_offset 32
	call	fopen
	addl	$16, %esp
	.cfi_def_cfa_offset 16
	testl	%eax, %eax
	movl	%eax, %edi
	je	.L1616
	pushl	%eax
	.cfi_def_cfa_offset 20
	pushl	%esi
	.cfi_def_cfa_offset 24
	pushl	$1
	.cfi_def_cfa_offset 28
	pushl	%ebx
	.cfi_def_cfa_offset 32
	call	fread
	movl	%eax, %ebx
	movl	%edi, (%esp)
	call	fclose
	addl	$16, %esp
	.cfi_def_cfa_offset 16
	xorl	%eax, %eax
	cmpl	%ebx, %esi
	je	.L1611
	.p2align 4,,10
	.p2align 3
.L1616:
	movl	$78, %eax
.L1611:
	popl	%ebx
	.cfi_remember_state
	.cfi_restore 3
	.cfi_def_cfa_offset 12
	popl	%esi
	.cfi_restore 6
	.cfi_def_cfa_offset 8
	popl	%edi
	.cfi_restore 7
	.cfi_def_cfa_offset 4
	ret
	.p2align 4,,10
	.p2align 3
.L1598:
	.cfi_restore_state
	subl	$12, %esp
	.cfi_def_cfa_offset 28
	pushl	%ebx
	.cfi_def_cfa_offset 32
	call	fclose
	addl	$16, %esp
	.cfi_def_cfa_offset 16
	jmp	.L1616
	.cfi_endproc
.LFE44:
	.size	lodepng_load_file, .-lodepng_load_file
	.section	.text.unlikely
.LCOLDE29:
	.text
.LHOTE29:
	.section	.rodata.str1.1
.LC30:
	.string	"wb"
	.section	.text.unlikely
.LCOLDB31:
	.text
.LHOTB31:
	.p2align 4,,15
	.globl	lodepng_save_file
	.type	lodepng_save_file, @function
lodepng_save_file:
.LFB45:
	.cfi_startproc
	pushl	%ebx
	.cfi_def_cfa_offset 8
	.cfi_offset 3, -8
	subl	$16, %esp
	.cfi_def_cfa_offset 24
	pushl	$.LC30
	.cfi_def_cfa_offset 28
	pushl	36(%esp)
	.cfi_def_cfa_offset 32
	call	fopen
	movl	%eax, %ebx
	addl	$16, %esp
	.cfi_def_cfa_offset 16
	movl	$79, %eax
	testl	%ebx, %ebx
	je	.L1618
	pushl	%ebx
	.cfi_def_cfa_offset 20
	pushl	24(%esp)
	.cfi_def_cfa_offset 24
	pushl	$1
	.cfi_def_cfa_offset 28
	pushl	28(%esp)
	.cfi_def_cfa_offset 32
	call	fwrite
	movl	%ebx, (%esp)
	call	fclose
	addl	$16, %esp
	.cfi_def_cfa_offset 16
	xorl	%eax, %eax
.L1618:
	addl	$8, %esp
	.cfi_def_cfa_offset 8
	popl	%ebx
	.cfi_restore 3
	.cfi_def_cfa_offset 4
	ret
	.cfi_endproc
.LFE45:
	.size	lodepng_save_file, .-lodepng_save_file
	.section	.text.unlikely
.LCOLDE31:
	.text
.LHOTE31:
	.section	.text.unlikely
.LCOLDB32:
	.text
.LHOTB32:
	.p2align 4,,15
	.globl	lodepng_huffman_code_lengths
	.type	lodepng_huffman_code_lengths, @function
lodepng_huffman_code_lengths:
.LFB58:
	.cfi_startproc
	pushl	%ebx
	.cfi_def_cfa_offset 8
	.cfi_offset 3, -8
	movl	16(%esp), %ecx
	movl	8(%esp), %eax
	movl	12(%esp), %edx
	movl	20(%esp), %ebx
	testl	%ecx, %ecx
	jne	.L1625
	movl	$80, %eax
	popl	%ebx
	.cfi_remember_state
	.cfi_restore 3
	.cfi_def_cfa_offset 4
	ret
	.p2align 4,,10
	.p2align 3
.L1625:
	.cfi_restore_state
	movl	%ebx, 8(%esp)
	popl	%ebx
	.cfi_restore 3
	.cfi_def_cfa_offset 4
	jmp	lodepng_huffman_code_lengths.part.11
	.cfi_endproc
.LFE58:
	.size	lodepng_huffman_code_lengths, .-lodepng_huffman_code_lengths
	.section	.text.unlikely
.LCOLDE32:
	.text
.LHOTE32:
	.section	.text.unlikely
.LCOLDB33:
	.text
.LHOTB33:
	.p2align 4,,15
	.globl	lodepng_inflate
	.type	lodepng_inflate, @function
lodepng_inflate:
.LFB70:
	.cfi_startproc
	pushl	%esi
	.cfi_def_cfa_offset 8
	.cfi_offset 6, -8
	pushl	%ebx
	.cfi_def_cfa_offset 12
	.cfi_offset 3, -12
	subl	$20, %esp
	.cfi_def_cfa_offset 32
	movl	32(%esp), %esi
	movl	36(%esp), %ebx
	movl	44(%esp), %ecx
	movl	(%esi), %edx
	movl	(%ebx), %eax
	movl	%edx, 4(%esp)
	movl	40(%esp), %edx
	movl	%eax, 8(%esp)
	movl	%eax, 12(%esp)
	leal	4(%esp), %eax
	call	lodepng_inflatev.isra.9
	movl	4(%esp), %edx
	movl	%edx, (%esi)
	movl	8(%esp), %edx
	movl	%edx, (%ebx)
	addl	$20, %esp
	.cfi_def_cfa_offset 12
	popl	%ebx
	.cfi_restore 3
	.cfi_def_cfa_offset 8
	popl	%esi
	.cfi_restore 6
	.cfi_def_cfa_offset 4
	ret
	.cfi_endproc
.LFE70:
	.size	lodepng_inflate, .-lodepng_inflate
	.section	.text.unlikely
.LCOLDE33:
	.text
.LHOTE33:
	.section	.text.unlikely
.LCOLDB34:
	.text
.LHOTB34:
	.p2align 4,,15
	.globl	lodepng_deflate
	.type	lodepng_deflate, @function
lodepng_deflate:
.LFB86:
	.cfi_startproc
	pushl	%ebp
	.cfi_def_cfa_offset 8
	.cfi_offset 5, -8
	pushl	%edi
	.cfi_def_cfa_offset 12
	.cfi_offset 7, -12
	pushl	%esi
	.cfi_def_cfa_offset 16
	.cfi_offset 6, -16
	pushl	%ebx
	.cfi_def_cfa_offset 20
	.cfi_offset 3, -20
	subl	$220, %esp
	.cfi_def_cfa_offset 240
	movl	244(%esp), %eax
	movl	$0, 72(%esp)
	movl	(%eax), %esi
	movl	240(%esp), %eax
	movl	(%eax), %ebx
	movl	256(%esp), %eax
	movl	%esi, 80(%esp)
	movl	%esi, 84(%esp)
	movl	(%eax), %eax
	movl	%ebx, 76(%esp)
	cmpl	$2, %eax
	movl	%eax, 20(%esp)
	jbe	.L1922
	movl	$61, 20(%esp)
.L1629:
	movl	240(%esp), %eax
	movl	%ebx, (%eax)
	movl	244(%esp), %eax
	movl	%esi, (%eax)
	movl	20(%esp), %eax
	addl	$220, %esp
	.cfi_remember_state
	.cfi_def_cfa_offset 20
	popl	%ebx
	.cfi_restore 3
	.cfi_def_cfa_offset 16
	popl	%esi
	.cfi_restore 6
	.cfi_def_cfa_offset 12
	popl	%edi
	.cfi_restore 7
	.cfi_def_cfa_offset 8
	popl	%ebp
	.cfi_restore 5
	.cfi_def_cfa_offset 4
	ret
	.p2align 4,,10
	.p2align 3
.L1922:
	.cfi_restore_state
	testl	%eax, %eax
	movl	252(%esp), %eax
	je	.L1923
	cmpl	$1, 20(%esp)
	movl	%eax, 24(%esp)
	je	.L1654
	shrl	$3, %eax
	addl	$8, %eax
	cmpl	$65535, %eax
	movl	%eax, 24(%esp)
	jbe	.L1811
	cmpl	$262144, %eax
	jbe	.L1654
	movl	$262144, 24(%esp)
.L1654:
	movl	24(%esp), %edi
	movl	252(%esp), %ecx
	xorl	%edx, %edx
	leal	-1(%edi,%ecx), %eax
	divl	%edi
	testl	%eax, %eax
	movl	%eax, 28(%esp)
	jne	.L1656
	movl	$1, 28(%esp)
.L1656:
	movl	256(%esp), %eax
	subl	$12, %esp
	.cfi_def_cfa_offset 252
	movl	8(%eax), %ebp
	pushl	$262144
	.cfi_def_cfa_offset 256
	call	malloc
	movl	%eax, 200(%esp)
	movl	%eax, 56(%esp)
	leal	0(,%ebp,4), %eax
	movl	%eax, (%esp)
	movl	%eax, 28(%esp)
	call	malloc
	leal	(%ebp,%ebp), %edx
	movl	%eax, 48(%esp)
	movl	%eax, 208(%esp)
	movl	%edx, (%esp)
	movl	%edx, 24(%esp)
	call	malloc
	movl	24(%esp), %edx
	movl	%eax, 204(%esp)
	movl	%eax, %edi
	movl	%edx, (%esp)
	movl	%edx, 32(%esp)
	call	malloc
	movl	$1036, (%esp)
	movl	%eax, 52(%esp)
	movl	%eax, 220(%esp)
	call	malloc
	movl	32(%esp), %edx
	movl	%eax, 24(%esp)
	movl	%eax, 212(%esp)
	movl	%edx, (%esp)
	call	malloc
	movl	%eax, 32(%esp)
	movl	%eax, 216(%esp)
	addl	$16, %esp
	.cfi_def_cfa_offset 240
	movl	40(%esp), %ecx
	testl	%ecx, %ecx
	sete	%dl
	testl	%edi, %edi
	sete	%al
	orl	%edx, %eax
	movl	32(%esp), %edx
	testl	%edx, %edx
	sete	%dl
	orl	%eax, %edx
	movl	8(%esp), %eax
	testl	%eax, %eax
	sete	%al
	orl	%edx, %eax
	movl	16(%esp), %edx
	testl	%edx, %edx
	sete	%dl
	orl	%eax, %edx
	movl	36(%esp), %eax
	testl	%eax, %eax
	sete	%al
	orb	%al, %dl
	jne	.L1813
	subl	$4, %esp
	.cfi_def_cfa_offset 244
	pushl	$262144
	.cfi_def_cfa_offset 248
	pushl	$255
	.cfi_def_cfa_offset 252
	pushl	%ecx
	.cfi_def_cfa_offset 256
	call	memset
	addl	$16, %esp
	.cfi_def_cfa_offset 240
	testl	%ebp, %ebp
	je	.L1657
	subl	$4, %esp
	.cfi_def_cfa_offset 244
	pushl	16(%esp)
	.cfi_def_cfa_offset 248
	pushl	$255
	.cfi_def_cfa_offset 252
	pushl	44(%esp)
	.cfi_def_cfa_offset 256
	call	memset
	addl	$16, %esp
	.cfi_def_cfa_offset 240
	xorl	%eax, %eax
	.p2align 4,,10
	.p2align 3
.L1658:
	movw	%ax, (%edi,%eax,2)
	addl	$1, %eax
	cmpl	%ebp, %eax
	jne	.L1658
	movl	8(%esp), %edi
	movl	16(%esp), %edx
	movl	$-1, %eax
	movl	$259, %ecx
	rep stosl
	xorl	%eax, %eax
	.p2align 4,,10
	.p2align 3
.L1661:
	movw	%ax, (%edx,%eax,2)
	addl	$1, %eax
	cmpl	%ebp, %eax
	jne	.L1661
.L1662:
	movl	28(%esp), %eax
	movl	$0, 16(%esp)
	subl	$1, %eax
	movl	%eax, 32(%esp)
	movl	20(%esp), %eax
	jmp	.L1660
	.p2align 4,,10
	.p2align 3
.L1664:
	cmpl	$2, %eax
	je	.L1685
	movl	16(%esp), %eax
	addl	$1, %eax
	cmpl	%eax, 28(%esp)
	movl	%eax, 16(%esp)
	setne	%bl
	xorl	%ebp, %ebp
.L1684:
	testb	%bl, %bl
	je	.L1769
.L1933:
	movl	256(%esp), %eax
	movl	(%eax), %eax
.L1660:
	movl	16(%esp), %edi
	movl	32(%esp), %esi
	xorl	%ecx, %ecx
	cmpl	%esi, %edi
	movl	24(%esp), %esi
	sete	%cl
	movl	%ecx, 12(%esp)
	imull	%esi, %edi
	movl	%edi, 8(%esp)
	addl	%esi, %edi
	cmpl	252(%esp), %edi
	movl	%edi, 20(%esp)
	jbe	.L1663
	movl	252(%esp), %edi
	movl	%edi, 20(%esp)
.L1663:
	cmpl	$1, %eax
	jne	.L1664
	leal	144(%esp), %eax
	movl	$0, 144(%esp)
	movl	$0, 148(%esp)
	movl	$0, 152(%esp)
	movl	$0, 164(%esp)
	movl	$0, 168(%esp)
	movl	$0, 172(%esp)
	call	generateFixedLitLenTree
	subl	$12, %esp
	.cfi_def_cfa_offset 252
	pushl	$128
	.cfi_def_cfa_offset 256
	call	malloc
	addl	$16, %esp
	.cfi_def_cfa_offset 240
	testl	%eax, %eax
	movl	%eax, %ebx
	je	.L1665
	leal	128(%ebx), %edx
	.p2align 4,,10
	.p2align 3
.L1666:
	movl	$5, (%eax)
	addl	$4, %eax
	cmpl	%edx, %eax
	jne	.L1666
	subl	$12, %esp
	.cfi_def_cfa_offset 252
	pushl	$128
	.cfi_def_cfa_offset 256
	call	malloc
	movl	%eax, 188(%esp)
	addl	$16, %esp
	.cfi_def_cfa_offset 240
	testl	%eax, %eax
	je	.L1667
	movl	%eax, %edi
	movl	$32, %ecx
	movl	%ebx, %esi
	rep movsl
	leal	164(%esp), %eax
	movl	$32, 180(%esp)
	movl	$15, 176(%esp)
	call	HuffmanTree_makeFromLengths2
.L1667:
	subl	$12, %esp
	.cfi_def_cfa_offset 252
	pushl	%ebx
	.cfi_def_cfa_offset 256
	call	free
	addl	$16, %esp
	.cfi_def_cfa_offset 240
.L1665:
	movl	72(%esp), %ecx
	testb	$7, %cl
	je	.L1924
.L1668:
	movl	12(%esp), %edi
	movl	80(%esp), %eax
	andl	$7, %ecx
	movl	76(%esp), %edx
	sall	%cl, %edi
	movl	%edi, %ecx
	orb	%cl, -1(%edx,%eax)
	movl	72(%esp), %eax
	leal	1(%eax), %ecx
	testb	$7, %cl
	movl	%ecx, 72(%esp)
	je	.L1925
.L1669:
	movl	80(%esp), %eax
	movl	76(%esp), %edx
	andl	$7, %ecx
	movl	$1, %ebx
	sall	%cl, %ebx
	orb	%bl, -1(%edx,%eax)
	movl	72(%esp), %eax
	addl	$1, %eax
	testb	$7, %al
	movl	%eax, 72(%esp)
	je	.L1926
.L1670:
	addl	$1, %eax
	movl	%eax, 72(%esp)
	movl	256(%esp), %eax
	movl	4(%eax), %eax
	testl	%eax, %eax
	jne	.L1671
	movl	20(%esp), %edi
	cmpl	%edi, 8(%esp)
	jnb	.L1927
	movl	152(%esp), %edx
	movl	148(%esp), %eax
	.p2align 4,,10
	.p2align 3
.L1682:
	movl	248(%esp), %edi
	movl	8(%esp), %esi
	movzbl	(%edi,%esi), %ecx
	movl	(%edx,%ecx,4), %ebx
	movl	(%eax,%ecx,4), %edi
	testl	%ebx, %ebx
	je	.L1676
	movl	72(%esp), %eax
	subl	$1, %ebx
	jmp	.L1681
	.p2align 4,,10
	.p2align 3
.L1677:
	movl	%ebx, %ecx
	movl	80(%esp), %esi
	movl	76(%esp), %ebp
	movl	%edi, %edx
	andl	$7, %eax
	subl	$1, %ebx
	shrl	%cl, %edx
	movl	%eax, %ecx
	andl	$1, %edx
	sall	%cl, %edx
	orb	%dl, -1(%ebp,%esi)
	movl	72(%esp), %eax
	addl	$1, %eax
	cmpl	$-1, %ebx
	movl	%eax, 72(%esp)
	je	.L1928
.L1681:
	testb	$7, %al
	jne	.L1677
	movl	80(%esp), %ebp
	movl	84(%esp), %eax
	leal	1(%ebp), %esi
	cmpl	%eax, %esi
	jbe	.L1678
	addl	%eax, %eax
	movl	%esi, %edx
	cmpl	%eax, %esi
	ja	.L1679
	leal	(%esi,%esi,2), %edx
	shrl	%edx
.L1679:
	subl	$8, %esp
	.cfi_def_cfa_offset 248
	pushl	%edx
	.cfi_def_cfa_offset 252
	movl	%edx, 24(%esp)
	pushl	88(%esp)
	.cfi_def_cfa_offset 256
	call	realloc
	addl	$16, %esp
	.cfi_def_cfa_offset 240
	testl	%eax, %eax
	movl	12(%esp), %edx
	je	.L1929
	movl	%edx, 84(%esp)
	movl	%eax, 76(%esp)
.L1680:
	movl	%esi, 80(%esp)
	movb	$0, (%eax,%ebp)
	movl	72(%esp), %eax
	jmp	.L1677
.L1813:
	movl	$83, 20(%esp)
	jmp	.L1629
.L1811:
	movl	$65536, 24(%esp)
	jmp	.L1654
.L1923:
	addl	$65534, %eax
	movl	$-2147450879, %edx
	mull	%edx
	shrl	$15, %edx
	testl	%edx, %edx
	movl	%edx, 32(%esp)
	je	.L1629
	leal	-1(%edx), %eax
	movl	$0, 8(%esp)
	movl	$0, 24(%esp)
	movl	%esi, %edx
	movl	%eax, 36(%esp)
	movl	%ebx, %eax
	.p2align 4,,10
	.p2align 3
.L1653:
	movl	36(%esp), %ecx
	cmpl	%ecx, 24(%esp)
	leal	1(%esi), %ebx
	sete	%cl
	cmpl	%edx, %ebx
	movl	%ecx, %edi
	jbe	.L1631
	addl	%edx, %edx
	movl	%ebx, %ebp
	cmpl	%edx, %ebx
	ja	.L1632
	leal	(%ebx,%ebx,2), %ebp
	shrl	%ebp
.L1632:
	subl	$8, %esp
	.cfi_def_cfa_offset 248
	pushl	%ebp
	.cfi_def_cfa_offset 252
	pushl	%eax
	.cfi_def_cfa_offset 256
	call	realloc
	addl	$16, %esp
	.cfi_def_cfa_offset 240
	testl	%eax, %eax
	je	.L1770
	movl	%ebp, 84(%esp)
	movl	%eax, 76(%esp)
.L1631:
	movl	%edi, %ecx
	movl	%ebx, 80(%esp)
	movb	%cl, (%eax,%esi)
.L1770:
	movl	252(%esp), %esi
	subl	8(%esp), %esi
	cmpl	$65534, %esi
	ja	.L1803
	movl	$65535, %eax
	movl	80(%esp), %ebp
	movl	%esi, %edi
	subl	%esi, %eax
	shrl	$8, %edi
	movl	%eax, 12(%esp)
	shrl	$8, %eax
	movl	%eax, 16(%esp)
	movl	84(%esp), %eax
	leal	1(%ebp), %ebx
	cmpl	%eax, %ebx
	jbe	.L1634
.L1932:
	addl	%eax, %eax
	movl	%ebx, %edx
	cmpl	%eax, %ebx
	ja	.L1635
	leal	(%ebx,%ebx,2), %edx
	shrl	%edx
.L1635:
	subl	$8, %esp
	.cfi_def_cfa_offset 248
	pushl	%edx
	.cfi_def_cfa_offset 252
	movl	%edx, 40(%esp)
	pushl	88(%esp)
	.cfi_def_cfa_offset 256
	call	realloc
	addl	$16, %esp
	.cfi_def_cfa_offset 240
	testl	%eax, %eax
	movl	28(%esp), %edx
	je	.L1771
	movl	%edx, 84(%esp)
	movl	%eax, 76(%esp)
.L1636:
	movl	%esi, %ecx
	movl	%ebx, 80(%esp)
	movb	%cl, (%eax,%ebp)
.L1771:
	movl	80(%esp), %esi
	movl	84(%esp), %eax
	leal	1(%esi), %ebx
	cmpl	%eax, %ebx
	jbe	.L1637
	addl	%eax, %eax
	movl	%ebx, %ebp
	cmpl	%eax, %ebx
	ja	.L1638
	leal	(%ebx,%ebx,2), %ebp
	shrl	%ebp
.L1638:
	subl	$8, %esp
	.cfi_def_cfa_offset 248
	pushl	%ebp
	.cfi_def_cfa_offset 252
	pushl	88(%esp)
	.cfi_def_cfa_offset 256
	call	realloc
	addl	$16, %esp
	.cfi_def_cfa_offset 240
	testl	%eax, %eax
	je	.L1772
	movl	%ebp, 84(%esp)
	movl	%eax, 76(%esp)
.L1639:
	movl	%edi, %ecx
	movl	%ebx, 80(%esp)
	movb	%cl, (%eax,%esi)
.L1772:
	movl	80(%esp), %esi
	movl	84(%esp), %eax
	leal	1(%esi), %ebx
	cmpl	%eax, %ebx
	jbe	.L1640
	addl	%eax, %eax
	movl	%ebx, %edi
	cmpl	%eax, %ebx
	ja	.L1641
	leal	(%ebx,%ebx,2), %edi
	shrl	%edi
.L1641:
	subl	$8, %esp
	.cfi_def_cfa_offset 248
	pushl	%edi
	.cfi_def_cfa_offset 252
	pushl	88(%esp)
	.cfi_def_cfa_offset 256
	call	realloc
	addl	$16, %esp
	.cfi_def_cfa_offset 240
	testl	%eax, %eax
	je	.L1773
	movl	%edi, 84(%esp)
	movl	%eax, 76(%esp)
.L1642:
	movzbl	12(%esp), %ecx
	movl	%ebx, 80(%esp)
	movb	%cl, (%eax,%esi)
.L1773:
	movl	80(%esp), %esi
	movl	84(%esp), %eax
	leal	1(%esi), %ebx
	cmpl	%eax, %ebx
	jbe	.L1643
	addl	%eax, %eax
	movl	%ebx, %edi
	cmpl	%eax, %ebx
	ja	.L1644
	leal	(%ebx,%ebx,2), %edi
	shrl	%edi
.L1644:
	subl	$8, %esp
	.cfi_def_cfa_offset 248
	pushl	%edi
	.cfi_def_cfa_offset 252
	pushl	88(%esp)
	.cfi_def_cfa_offset 256
	call	realloc
	addl	$16, %esp
	.cfi_def_cfa_offset 240
	testl	%eax, %eax
	je	.L1774
	movl	%edi, 84(%esp)
	movl	%eax, 76(%esp)
.L1645:
	movzbl	16(%esp), %ecx
	movl	%ebx, 80(%esp)
	movb	%cl, (%eax,%esi)
.L1774:
	movl	8(%esp), %eax
	cmpl	%eax, 252(%esp)
	movl	%eax, %edi
	jbe	.L1646
	movl	248(%esp), %eax
	xorl	%esi, %esi
	addl	%edi, %eax
	movl	%eax, 16(%esp)
	jmp	.L1650
	.p2align 4,,10
	.p2align 3
.L1930:
	addl	%eax, %eax
	movl	%ebx, %edx
	cmpl	%eax, %ebx
	ja	.L1648
	leal	(%ebx,%ebx,2), %edx
	shrl	%edx
.L1648:
	movb	%cl, 12(%esp)
	subl	$8, %esp
	.cfi_def_cfa_offset 248
	pushl	%edx
	.cfi_def_cfa_offset 252
	movl	%edx, 20(%esp)
	pushl	88(%esp)
	.cfi_def_cfa_offset 256
	call	realloc
	addl	$16, %esp
	.cfi_def_cfa_offset 240
	testl	%eax, %eax
	movl	8(%esp), %edx
	movzbl	12(%esp), %ecx
	je	.L1775
	movl	%edx, 84(%esp)
	movl	%eax, 76(%esp)
.L1649:
	movl	%ebx, 80(%esp)
	movb	%cl, (%eax,%ebp)
.L1775:
	addl	$1, %esi
	cmpl	$65534, %esi
	ja	.L1646
	cmpl	%edi, 252(%esp)
	jbe	.L1646
.L1650:
	movl	16(%esp), %eax
	movl	80(%esp), %ebp
	addl	$1, %edi
	movzbl	(%eax,%esi), %ecx
	movl	84(%esp), %eax
	leal	1(%ebp), %ebx
	cmpl	%eax, %ebx
	ja	.L1930
	movl	76(%esp), %eax
	jmp	.L1649
	.p2align 4,,10
	.p2align 3
.L1646:
	addl	$1, 24(%esp)
	movl	24(%esp), %eax
	cmpl	32(%esp), %eax
	je	.L1931
	movl	76(%esp), %eax
	movl	80(%esp), %esi
	movl	84(%esp), %edx
	movl	%edi, 8(%esp)
	jmp	.L1653
	.p2align 4,,10
	.p2align 3
.L1803:
	movl	80(%esp), %ebp
	movl	84(%esp), %eax
	movl	$255, %edi
	movl	$0, 16(%esp)
	movl	$0, 12(%esp)
	movl	$65535, %esi
	leal	1(%ebp), %ebx
	cmpl	%eax, %ebx
	ja	.L1932
.L1634:
	movl	76(%esp), %eax
	jmp	.L1636
	.p2align 4,,10
	.p2align 3
.L1643:
	movl	76(%esp), %eax
	jmp	.L1645
	.p2align 4,,10
	.p2align 3
.L1640:
	movl	76(%esp), %eax
	jmp	.L1642
	.p2align 4,,10
	.p2align 3
.L1637:
	movl	76(%esp), %eax
	jmp	.L1639
.L1931:
	movl	76(%esp), %ebx
	movl	80(%esp), %esi
	jmp	.L1629
	.p2align 4,,10
	.p2align 3
.L1678:
	movl	76(%esp), %eax
	jmp	.L1680
	.p2align 4,,10
	.p2align 3
.L1928:
	movl	152(%esp), %edx
	movl	148(%esp), %eax
.L1676:
	addl	$1, 8(%esp)
	movl	8(%esp), %edi
	cmpl	%edi, 20(%esp)
	ja	.L1682
	leal	76(%esp), %edi
	leal	72(%esp), %esi
.L1675:
	movl	1024(%eax), %ecx
	subl	$12, %esp
	.cfi_def_cfa_offset 252
	pushl	1024(%edx)
	.cfi_def_cfa_offset 256
	movl	%esi, %eax
	movl	%edi, %edx
	movl	$1, %ebx
	xorl	%ebp, %ebp
	call	addBitsToStreamReversed
	addl	$16, %esp
	.cfi_def_cfa_offset 240
.L1788:
	subl	$12, %esp
	.cfi_def_cfa_offset 252
	pushl	156(%esp)
	.cfi_def_cfa_offset 256
	call	free
	popl	%esi
	.cfi_def_cfa_offset 252
	pushl	160(%esp)
	.cfi_def_cfa_offset 256
	call	free
	popl	%edi
	.cfi_def_cfa_offset 252
	pushl	164(%esp)
	.cfi_def_cfa_offset 256
	call	free
	popl	%eax
	.cfi_def_cfa_offset 252
	pushl	176(%esp)
	.cfi_def_cfa_offset 256
	call	free
	popl	%eax
	.cfi_def_cfa_offset 252
	pushl	180(%esp)
	.cfi_def_cfa_offset 256
	call	free
	popl	%eax
	.cfi_def_cfa_offset 252
	pushl	184(%esp)
	.cfi_def_cfa_offset 256
	call	free
	movl	32(%esp), %eax
	addl	$16, %esp
	.cfi_def_cfa_offset 240
	addl	$1, %eax
	cmpl	%eax, 28(%esp)
	movl	%eax, 16(%esp)
	setne	%dl
	andl	%edx, %ebx
	testb	%bl, %bl
	jne	.L1933
.L1769:
	subl	$12, %esp
	.cfi_def_cfa_offset 252
	pushl	196(%esp)
	.cfi_def_cfa_offset 256
	call	free
	popl	%esi
	.cfi_def_cfa_offset 252
	pushl	204(%esp)
	.cfi_def_cfa_offset 256
	call	free
	popl	%edi
	.cfi_def_cfa_offset 252
	pushl	200(%esp)
	.cfi_def_cfa_offset 256
	call	free
	popl	%eax
	.cfi_def_cfa_offset 252
	pushl	216(%esp)
	.cfi_def_cfa_offset 256
	call	free
	popl	%eax
	.cfi_def_cfa_offset 252
	pushl	208(%esp)
	.cfi_def_cfa_offset 256
	call	free
	popl	%eax
	.cfi_def_cfa_offset 252
	pushl	212(%esp)
	.cfi_def_cfa_offset 256
	call	free
	movl	92(%esp), %ebx
	movl	96(%esp), %esi
	addl	$16, %esp
	.cfi_def_cfa_offset 240
	movl	%ebp, 20(%esp)
	jmp	.L1629
	.p2align 4,,10
	.p2align 3
.L1929:
	movl	72(%esp), %eax
	jmp	.L1677
	.p2align 4,,10
	.p2align 3
.L1685:
	movl	256(%esp), %eax
	movl	$0, 88(%esp)
	movl	$0, 96(%esp)
	movl	$0, 92(%esp)
	movl	$0, 124(%esp)
	movl	$0, 128(%esp)
	movl	4(%eax), %ecx
	movl	$0, 132(%esp)
	movl	$0, 144(%esp)
	movl	$0, 148(%esp)
	movl	$0, 152(%esp)
	movl	$0, 164(%esp)
	testl	%ecx, %ecx
	movl	$0, 168(%esp)
	movl	$0, 172(%esp)
	movl	$0, 100(%esp)
	movl	$0, 108(%esp)
	movl	$0, 104(%esp)
	movl	$0, 112(%esp)
	movl	$0, 120(%esp)
	movl	$0, 116(%esp)
	je	.L1686
	subl	$8, %esp
	.cfi_def_cfa_offset 248
	movl	264(%esp), %eax
	pushl	20(%eax)
	.cfi_def_cfa_offset 252
	movl	268(%esp), %eax
	pushl	16(%eax)
	.cfi_def_cfa_offset 256
	movl	272(%esp), %eax
	pushl	12(%eax)
	.cfi_def_cfa_offset 260
	movl	276(%esp), %eax
	pushl	8(%eax)
	.cfi_def_cfa_offset 264
	pushl	44(%esp)
	.cfi_def_cfa_offset 268
	pushl	36(%esp)
	.cfi_def_cfa_offset 272
	movl	280(%esp), %ecx
	leal	216(%esp), %edx
	leal	120(%esp), %eax
	call	encodeLZ77
	addl	$32, %esp
	.cfi_def_cfa_offset 240
	testl	%eax, %eax
	movl	%eax, %ebp
	jne	.L1934
.L1687:
	subl	$8, %esp
	.cfi_def_cfa_offset 248
	pushl	$1144
	.cfi_def_cfa_offset 252
	pushl	$0
	.cfi_def_cfa_offset 256
	call	realloc
	movl	%eax, 36(%esp)
	addl	$16, %esp
	.cfi_def_cfa_offset 240
	testl	%eax, %eax
	je	.L1935
	movl	20(%esp), %edi
	xorl	%ebx, %ebx
	movl	$286, %ecx
	movl	%ebx, %eax
	subl	$8, %esp
	.cfi_def_cfa_offset 248
	rep stosl
	pushl	$120
	.cfi_def_cfa_offset 252
	pushl	$0
	.cfi_def_cfa_offset 256
	call	realloc
	movl	%eax, 52(%esp)
	addl	$16, %esp
	.cfi_def_cfa_offset 240
	testl	%eax, %eax
	je	.L1936
	movl	36(%esp), %edi
	movl	%ebx, %eax
	movl	$30, %ecx
	movl	20(%esp), %ebx
	rep stosl
	xorl	%eax, %eax
	movl	92(%esp), %edx
	movl	88(%esp), %ecx
	testl	%edx, %edx
	je	.L1696
.L1855:
	movl	(%ecx,%eax,4), %edx
	leal	0(,%eax,4), %esi
	addl	$1, (%ebx,%edx,4)
	cmpl	$256, %edx
	jbe	.L1694
	movl	8(%ecx,%esi), %edx
	movl	36(%esp), %edi
	addl	$3, %eax
	addl	$1, (%edi,%edx,4)
.L1694:
	addl	$1, %eax
	cmpl	92(%esp), %eax
	jne	.L1855
.L1696:
	movl	20(%esp), %eax
	movl	$285, %ebx
	movl	1140(%eax), %edx
	movl	$1, 1024(%eax)
	testl	%edx, %edx
	jne	.L1937
	movl	%eax, %edx
	jmp	.L1874
.L1938:
	cmpl	$257, %ebx
	jbe	.L1827
	movl	%eax, %ebx
.L1874:
	movl	-4(%edx,%ebx,4), %ebp
	leal	-1(%ebx), %eax
	testl	%ebp, %ebp
	je	.L1938
.L1827:
	leal	0(,%ebx,4), %esi
	movl	$15, 136(%esp)
	movl	%ebx, 140(%esp)
	subl	$8, %esp
	.cfi_def_cfa_offset 248
	pushl	%esi
	.cfi_def_cfa_offset 252
	pushl	144(%esp)
	.cfi_def_cfa_offset 256
	call	realloc
	movl	%eax, 148(%esp)
	addl	$16, %esp
	.cfi_def_cfa_offset 240
	testl	%eax, %eax
	je	.L1698
	subl	$4, %esp
	.cfi_def_cfa_offset 244
	pushl	%esi
	.cfi_def_cfa_offset 248
	pushl	$0
	.cfi_def_cfa_offset 252
	pushl	%eax
	.cfi_def_cfa_offset 256
	call	memset
	movl	148(%esp), %eax
	addl	$16, %esp
	.cfi_def_cfa_offset 240
	testl	%ebx, %ebx
	jne	.L1699
	movl	16(%esp), %esi
	movl	$80, %ebp
	addl	$1, %esi
.L1700:
	xorl	%ebx, %ebx
	movl	$0, 8(%esp)
	movl	$0, 40(%esp)
.L1688:
	movl	$0, 96(%esp)
	movl	$0, 92(%esp)
	subl	$12, %esp
	.cfi_def_cfa_offset 252
	pushl	100(%esp)
	.cfi_def_cfa_offset 256
	call	free
	movl	$0, 104(%esp)
	popl	%eax
	.cfi_def_cfa_offset 252
	pushl	136(%esp)
	.cfi_def_cfa_offset 256
	call	free
	popl	%eax
	.cfi_def_cfa_offset 252
	pushl	140(%esp)
	.cfi_def_cfa_offset 256
	call	free
	popl	%eax
	.cfi_def_cfa_offset 252
	pushl	144(%esp)
	.cfi_def_cfa_offset 256
	call	free
	popl	%edx
	.cfi_def_cfa_offset 252
	pushl	156(%esp)
	.cfi_def_cfa_offset 256
	call	free
	popl	%ecx
	.cfi_def_cfa_offset 252
	pushl	160(%esp)
	.cfi_def_cfa_offset 256
	call	free
	popl	%edi
	.cfi_def_cfa_offset 252
	pushl	164(%esp)
	.cfi_def_cfa_offset 256
	call	free
	popl	%eax
	.cfi_def_cfa_offset 252
	pushl	176(%esp)
	.cfi_def_cfa_offset 256
	call	free
	popl	%eax
	.cfi_def_cfa_offset 252
	pushl	180(%esp)
	.cfi_def_cfa_offset 256
	call	free
	popl	%eax
	.cfi_def_cfa_offset 252
	pushl	184(%esp)
	.cfi_def_cfa_offset 256
	call	free
	popl	%eax
	.cfi_def_cfa_offset 252
	pushl	32(%esp)
	.cfi_def_cfa_offset 256
	call	free
	popl	%eax
	.cfi_def_cfa_offset 252
	pushl	48(%esp)
	.cfi_def_cfa_offset 256
	call	free
	popl	%eax
	.cfi_def_cfa_offset 252
	pushl	52(%esp)
	.cfi_def_cfa_offset 256
	call	free
	movl	$0, 136(%esp)
	movl	$0, 132(%esp)
	popl	%edx
	.cfi_def_cfa_offset 252
	pushl	124(%esp)
	.cfi_def_cfa_offset 256
	call	free
	movl	$0, 128(%esp)
	movl	$0, 124(%esp)
	movl	$0, 120(%esp)
	popl	%ecx
	.cfi_def_cfa_offset 252
	pushl	112(%esp)
	.cfi_def_cfa_offset 256
	call	free
	movl	$0, 116(%esp)
	popl	%edi
	.cfi_def_cfa_offset 252
	pushl	20(%esp)
	.cfi_def_cfa_offset 256
	call	free
	addl	$16, %esp
	.cfi_def_cfa_offset 240
	movl	%esi, 16(%esp)
	jmp	.L1684
.L1686:
	movl	20(%esp), %ebx
	subl	8(%esp), %ebx
	leal	0(,%ebx,4), %esi
	testl	%esi, %esi
	je	.L1815
	subl	$8, %esp
	.cfi_def_cfa_offset 248
	pushl	%esi
	.cfi_def_cfa_offset 252
	pushl	$0
	.cfi_def_cfa_offset 256
	call	realloc
	addl	$16, %esp
	.cfi_def_cfa_offset 240
	testl	%eax, %eax
	je	.L1939
	movl	%esi, 96(%esp)
	movl	%eax, 88(%esp)
.L1689:
	movl	8(%esp), %edi
	movl	248(%esp), %esi
	xorl	%edx, %edx
	movl	%ebx, 92(%esp)
	addl	%edi, %esi
	cmpl	20(%esp), %edi
	jnb	.L1687
.L1856:
	movzbl	(%esi,%edx), %ecx
	movl	%ecx, (%eax,%edx,4)
	addl	$1, %edx
	cmpl	%edx, %ebx
	jne	.L1856
	jmp	.L1687
.L1671:
	movl	$0, 124(%esp)
	movl	$0, 132(%esp)
	subl	$8, %esp
	.cfi_def_cfa_offset 248
	movl	$0, 136(%esp)
	movl	264(%esp), %eax
	pushl	20(%eax)
	.cfi_def_cfa_offset 252
	movl	268(%esp), %eax
	pushl	16(%eax)
	.cfi_def_cfa_offset 256
	movl	272(%esp), %eax
	pushl	12(%eax)
	.cfi_def_cfa_offset 260
	movl	276(%esp), %eax
	pushl	8(%eax)
	.cfi_def_cfa_offset 264
	pushl	44(%esp)
	.cfi_def_cfa_offset 268
	pushl	36(%esp)
	.cfi_def_cfa_offset 272
	movl	280(%esp), %ecx
	leal	216(%esp), %edx
	leal	156(%esp), %eax
	call	encodeLZ77
	addl	$32, %esp
	.cfi_def_cfa_offset 240
	testl	%eax, %eax
	movl	%eax, %ebp
	je	.L1940
	movl	$0, 132(%esp)
	movl	$0, 128(%esp)
	subl	$12, %esp
	.cfi_def_cfa_offset 252
	pushl	136(%esp)
	.cfi_def_cfa_offset 256
	xorl	%ebx, %ebx
	call	free
	addl	$16, %esp
	.cfi_def_cfa_offset 240
	jmp	.L1788
.L1926:
	leal	76(%esp), %edi
	xorl	%edx, %edx
	movl	%edi, %eax
	call	ucvector_push_back
	movl	72(%esp), %eax
	jmp	.L1670
.L1925:
	leal	76(%esp), %edi
	xorl	%edx, %edx
	movl	%edi, %eax
	call	ucvector_push_back
	movl	72(%esp), %ecx
	jmp	.L1669
.L1924:
	leal	76(%esp), %edi
	xorl	%edx, %edx
	movl	%edi, %eax
	call	ucvector_push_back
	movl	72(%esp), %ecx
	jmp	.L1668
.L1815:
	xorl	%eax, %eax
	jmp	.L1689
.L1934:
	movl	16(%esp), %esi
	xorl	%ebx, %ebx
	movl	$0, 8(%esp)
	movl	$0, 40(%esp)
	movl	$0, 36(%esp)
	movl	$0, 20(%esp)
	addl	$1, %esi
	jmp	.L1688
.L1940:
	subl	$4, %esp
	.cfi_def_cfa_offset 244
	leal	168(%esp), %eax
	leal	80(%esp), %edi
	leal	76(%esp), %esi
	pushl	%eax
	.cfi_def_cfa_offset 248
	movl	%edi, %edx
	leal	152(%esp), %eax
	pushl	%eax
	.cfi_def_cfa_offset 252
	leal	140(%esp), %eax
	pushl	%eax
	.cfi_def_cfa_offset 256
	movl	%esi, %eax
	leal	140(%esp), %ecx
	call	writeLZ77data.isra.7
	movl	$0, 148(%esp)
	movl	$0, 144(%esp)
	popl	%eax
	.cfi_def_cfa_offset 252
	pushl	136(%esp)
	.cfi_def_cfa_offset 256
	call	free
	movl	168(%esp), %edx
	movl	164(%esp), %eax
	addl	$16, %esp
	.cfi_def_cfa_offset 240
	jmp	.L1675
.L1657:
	movl	8(%esp), %edi
	movl	$259, %ecx
	movl	$-1, %eax
	rep stosl
	jmp	.L1662
.L1927:
	movl	152(%esp), %edx
	movl	148(%esp), %eax
	leal	76(%esp), %edi
	leal	72(%esp), %esi
	jmp	.L1675
.L1935:
	movl	16(%esp), %esi
	xorl	%ebx, %ebx
	movl	$0, 8(%esp)
	movl	$0, 40(%esp)
	movl	$0, 36(%esp)
	movl	$83, %ebp
	addl	$1, %esi
	jmp	.L1688
.L1939:
	movl	16(%esp), %esi
	xorl	%ebx, %ebx
	movl	$0, 8(%esp)
	movl	$0, 40(%esp)
	movl	$0, 36(%esp)
	movl	$83, %ebp
	movl	$0, 20(%esp)
	addl	$1, %esi
	jmp	.L1688
.L1936:
	movl	16(%esp), %esi
	xorl	%ebx, %ebx
	movl	$0, 8(%esp)
	movl	$0, 40(%esp)
	movl	$83, %ebp
	addl	$1, %esi
	jmp	.L1688
.L1698:
	movl	16(%esp), %esi
	movl	$83, %ebp
	addl	$1, %esi
	jmp	.L1700
.L1937:
	movl	$15, 136(%esp)
	movl	$286, 140(%esp)
	subl	$8, %esp
	.cfi_def_cfa_offset 248
	pushl	$1144
	.cfi_def_cfa_offset 252
	pushl	144(%esp)
	.cfi_def_cfa_offset 256
	call	realloc
	movl	%eax, 148(%esp)
	addl	$16, %esp
	.cfi_def_cfa_offset 240
	testl	%eax, %eax
	movl	%eax, %edx
	je	.L1698
	xorl	%eax, %eax
	movl	$286, %ecx
	movl	%edx, %edi
	rep stosl
	movl	$286, %ebx
	movl	132(%esp), %eax
.L1699:
	subl	$12, %esp
	.cfi_def_cfa_offset 252
	movl	%ebx, %ecx
	pushl	$15
	.cfi_def_cfa_offset 256
	movl	36(%esp), %edx
	call	lodepng_huffman_code_lengths.part.11
	addl	$16, %esp
	.cfi_def_cfa_offset 240
	testl	%eax, %eax
	movl	%eax, %ebp
	jne	.L1941
	leal	124(%esp), %eax
	call	HuffmanTree_makeFromLengths2
	testl	%eax, %eax
	movl	%eax, %ebp
	jne	.L1911
	subl	$8, %esp
	.cfi_def_cfa_offset 248
	movl	$2, %ecx
	pushl	$15
	.cfi_def_cfa_offset 252
	pushl	$30
	.cfi_def_cfa_offset 256
	movl	52(%esp), %edx
	leal	160(%esp), %eax
	call	HuffmanTree_makeFromFrequencies
	addl	$16, %esp
	.cfi_def_cfa_offset 240
	testl	%eax, %eax
	movl	%eax, %ebp
	jne	.L1911
	movl	140(%esp), %eax
	cmpl	$286, %eax
	movl	%eax, 48(%esp)
	jbe	.L1704
	movl	$286, 48(%esp)
	movl	48(%esp), %eax
.L1704:
	xorl	%ebp, %ebp
	testl	%eax, %eax
	movl	160(%esp), %edi
	leal	0(,%eax,4), %esi
	leal	100(%esp), %ebx
	je	.L1710
.L1854:
	movl	132(%esp), %eax
	movl	(%eax,%ebp), %edx
	movl	%ebx, %eax
	addl	$4, %ebp
	call	uivector_push_back
	cmpl	%esi, %ebp
	jne	.L1854
.L1710:
	cmpl	$30, %edi
	movl	%edi, 44(%esp)
	jbe	.L1706
	movl	$30, 44(%esp)
.L1707:
	movl	44(%esp), %eax
	leal	100(%esp), %ebx
	xorl	%edi, %edi
	leal	0(,%eax,4), %esi
.L1713:
	movl	152(%esp), %edx
	movl	%ebx, %eax
	movl	(%edx,%edi), %edx
	addl	$4, %edi
	call	uivector_push_back
	cmpl	%esi, %edi
	jne	.L1713
.L1708:
	movl	104(%esp), %ecx
	xorl	%ebp, %ebp
	testl	%ecx, %ecx
	je	.L1712
.L1852:
	leal	1(%ebp), %eax
	cmpl	%eax, %ecx
	movl	%eax, %edi
	movl	%eax, 56(%esp)
	movl	100(%esp), %eax
	jbe	.L1738
	movl	(%eax,%edi,4), %esi
	leal	-4(,%edi,4), %edi
	addl	%eax, %edi
	movl	(%edi), %eax
	cmpl	%eax, %esi
	jne	.L1739
	leal	-1(%ecx), %edx
	movl	$1, %ebx
	subl	%ebp, %edx
	jmp	.L1717
.L1714:
	leal	1(%ebx), %eax
	cmpl	%esi, (%edi,%eax,4)
	jne	.L1909
	movl	%eax, %ebx
.L1717:
	cmpl	%edx, %ebx
	jne	.L1714
.L1909:
	testl	%esi, %esi
	movl	%ebx, 52(%esp)
	jne	.L1942
	cmpl	$1, %ebx
	jbe	.L1719
	leal	1(%ebx), %esi
	cmpl	$10, %esi
	jbe	.L1943
	cmpl	$138, %esi
	jbe	.L1722
	movl	$138, %esi
.L1722:
	leal	112(%esp), %eax
	movl	$18, %edx
	call	uivector_push_back
	leal	-11(%esi), %edx
	leal	112(%esp), %eax
	call	uivector_push_back
.L1721:
	addl	%esi, %ebp
.L1723:
	movl	104(%esp), %ecx
	cmpl	%ebp, %ecx
	jne	.L1852
.L1712:
	subl	$8, %esp
	.cfi_def_cfa_offset 248
	pushl	$76
	.cfi_def_cfa_offset 252
	pushl	$0
	.cfi_def_cfa_offset 256
	call	realloc
	movl	%eax, 56(%esp)
	addl	$16, %esp
	.cfi_def_cfa_offset 240
	testl	%eax, %eax
	je	.L1944
	movl	40(%esp), %edi
	xorl	%eax, %eax
	movl	$19, %ecx
	movl	40(%esp), %esi
	rep stosl
	movl	116(%esp), %ebx
	movl	112(%esp), %ecx
	testl	%ebx, %ebx
	je	.L1745
.L1851:
	leal	(%ecx,%eax,4), %edx
	movl	(%edx), %ebx
	addl	$1, (%esi,%ebx,4)
	leal	1(%eax), %ebx
	cmpl	$15, (%edx)
	jbe	.L1743
	movl	%ebx, %eax
.L1743:
	addl	$1, %eax
	cmpl	116(%esp), %eax
	jne	.L1851
.L1745:
	subl	$8, %esp
	.cfi_def_cfa_offset 248
	movl	$19, %ecx
	pushl	$7
	.cfi_def_cfa_offset 252
	pushl	$19
	.cfi_def_cfa_offset 256
	movl	56(%esp), %edx
	leal	180(%esp), %eax
	call	HuffmanTree_makeFromFrequencies
	addl	$16, %esp
	.cfi_def_cfa_offset 240
	testl	%eax, %eax
	movl	%eax, %ebp
	je	.L1945
	movl	16(%esp), %esi
	xorl	%ebx, %ebx
	movl	$0, 8(%esp)
	addl	$1, %esi
	jmp	.L1688
	.p2align 4,,10
	.p2align 3
.L1942:
	cmpl	$2, %ebx
	jbe	.L1719
	movl	$-1431655765, %eax
	movl	%ebx, %edi
	mull	%ebx
	shrl	$2, %edx
	leal	(%edx,%edx,2), %eax
	movl	%edx, 8(%esp)
	addl	%eax, %eax
	subl	%eax, %edi
	movl	116(%esp), %eax
	movl	%edi, 40(%esp)
	leal	1(%eax), %edx
	movl	120(%esp), %eax
	leal	0(,%edx,4), %ebp
	cmpl	%eax, %ebp
	jbe	.L1724
	addl	%eax, %eax
	movl	%ebp, %edi
	cmpl	%eax, %ebp
	ja	.L1725
	leal	0(%ebp,%edx,8), %edi
	shrl	%edi
.L1725:
	movl	%edx, 60(%esp)
	subl	$8, %esp
	.cfi_def_cfa_offset 248
	pushl	%edi
	.cfi_def_cfa_offset 252
	pushl	124(%esp)
	.cfi_def_cfa_offset 256
	call	realloc
	addl	$16, %esp
	.cfi_def_cfa_offset 240
	testl	%eax, %eax
	movl	60(%esp), %edx
	je	.L1776
	movl	%edi, 120(%esp)
	movl	%eax, 112(%esp)
.L1726:
	movl	%edx, 116(%esp)
	movl	%esi, -4(%eax,%ebp)
.L1776:
	movl	8(%esp), %esi
	xorl	%ebp, %ebp
	testl	%esi, %esi
	jne	.L1853
	jmp	.L1735
	.p2align 4,,10
	.p2align 3
.L1947:
	addl	%eax, %eax
	movl	%edi, %edx
	cmpl	%eax, %edi
	ja	.L1731
	leal	(%edi,%esi,8), %edx
	shrl	%edx
.L1731:
	subl	$8, %esp
	.cfi_def_cfa_offset 248
	pushl	%edx
	.cfi_def_cfa_offset 252
	movl	%edx, 72(%esp)
	pushl	124(%esp)
	.cfi_def_cfa_offset 256
	call	realloc
	addl	$16, %esp
	.cfi_def_cfa_offset 240
	testl	%eax, %eax
	movl	60(%esp), %edx
	je	.L1946
	movl	%edx, 120(%esp)
	movl	%eax, 112(%esp)
.L1732:
	movl	%esi, 116(%esp)
	movl	$16, -4(%eax,%edi)
.L1777:
	movl	116(%esp), %edi
	movl	120(%esp), %edx
	leal	1(%edi), %esi
	leal	0(,%esi,4), %edi
	cmpl	%edx, %edi
	jbe	.L1733
	leal	(%edx,%edx), %ecx
	movl	%edi, %edx
	cmpl	%ecx, %edi
	ja	.L1734
	leal	(%edi,%esi,8), %edx
	shrl	%edx
.L1734:
	subl	$8, %esp
	.cfi_def_cfa_offset 248
	pushl	%edx
	.cfi_def_cfa_offset 252
	movl	%edx, 72(%esp)
	pushl	%eax
	.cfi_def_cfa_offset 256
	call	realloc
	addl	$16, %esp
	.cfi_def_cfa_offset 240
	testl	%eax, %eax
	movl	60(%esp), %edx
	je	.L1778
	movl	%edx, 120(%esp)
	movl	%eax, 112(%esp)
.L1733:
	movl	%esi, 116(%esp)
	movl	$3, -4(%eax,%edi)
.L1778:
	addl	$1, %ebp
	cmpl	8(%esp), %ebp
	je	.L1735
.L1853:
	movl	116(%esp), %eax
	leal	1(%eax), %esi
	movl	120(%esp), %eax
	leal	0(,%esi,4), %edi
	cmpl	%eax, %edi
	ja	.L1947
	movl	112(%esp), %eax
	jmp	.L1732
.L1735:
	cmpl	$2, 40(%esp)
	ja	.L1948
	subl	40(%esp), %ebx
	movl	%ebx, 52(%esp)
	movl	%ebx, %ebp
.L1736:
	addl	56(%esp), %ebp
	jmp	.L1723
.L1738:
	movl	(%eax,%ebp,4), %eax
.L1739:
	movl	%eax, %esi
.L1719:
	leal	112(%esp), %eax
	movl	%esi, %edx
	call	uivector_push_back
	movl	56(%esp), %ebp
	jmp	.L1723
.L1706:
	movl	44(%esp), %edi
	testl	%edi, %edi
	jne	.L1707
	jmp	.L1708
	.p2align 4,,10
	.p2align 3
.L1946:
	movl	112(%esp), %eax
	jmp	.L1777
.L1724:
	movl	112(%esp), %eax
	jmp	.L1726
.L1943:
	leal	112(%esp), %eax
	movl	$17, %edx
	call	uivector_push_back
	leal	-2(%ebx), %edx
	leal	112(%esp), %eax
	call	uivector_push_back
	jmp	.L1721
.L1948:
	leal	112(%esp), %eax
	movl	$16, %edx
	call	uivector_push_back
	movl	40(%esp), %edx
	leal	112(%esp), %eax
	subl	$3, %edx
	call	uivector_push_back
	movl	52(%esp), %ebp
	jmp	.L1736
.L1944:
	movl	16(%esp), %esi
	xorl	%ebx, %ebx
	movl	$0, 8(%esp)
	movl	$83, %ebp
	addl	$1, %esi
	jmp	.L1688
.L1911:
	movl	16(%esp), %esi
	xorl	%ebx, %ebx
	movl	$0, 8(%esp)
	movl	$0, 40(%esp)
	addl	$1, %esi
	jmp	.L1688
.L1941:
	movl	16(%esp), %esi
	addl	$1, %esi
	jmp	.L1700
.L1945:
	movl	180(%esp), %esi
	leal	0(,%esi,4), %ebx
	testl	%ebx, %ebx
	je	.L1823
	subl	$8, %esp
	.cfi_def_cfa_offset 248
	pushl	%ebx
	.cfi_def_cfa_offset 252
	pushl	$0
	.cfi_def_cfa_offset 256
	call	realloc
	movl	%eax, %edi
	movl	%eax, 24(%esp)
	addl	$16, %esp
	.cfi_def_cfa_offset 240
	testl	%edi, %edi
	movl	180(%esp), %eax
	movl	%ebx, %ecx
	je	.L1912
.L1746:
	testl	%eax, %eax
	je	.L1779
	movl	%ecx, 52(%esp)
	movl	172(%esp), %edi
	xorl	%eax, %eax
	movl	8(%esp), %ecx
.L1748:
	movl	CLCL_ORDER(,%eax,4), %edx
	movl	(%edi,%edx,4), %edx
	movl	%edx, (%ecx,%eax,4)
	addl	$1, %eax
	cmpl	180(%esp), %eax
	jne	.L1748
	movl	52(%esp), %ecx
.L1779:
	leal	(%esi,%esi,2), %eax
	leal	-4(%ebx), %edi
	leal	-12(,%eax,4), %edx
.L1749:
	movl	8(%esp), %eax
	movl	(%eax,%edi), %ebx
	testl	%ebx, %ebx
	sete	%bl
	cmpl	$4, %esi
	seta	%al
	andb	%al, %bl
	je	.L1949
	subl	$1, %esi
	cmpl	%ecx, %edi
	movl	%edi, %ebx
	jbe	.L1750
	addl	%ecx, %ecx
	cmpl	%ecx, %edi
	ja	.L1751
	movl	%edx, %ebx
	shrl	%ebx
.L1751:
	movl	%edx, 52(%esp)
	subl	$8, %esp
	.cfi_def_cfa_offset 248
	pushl	%ebx
	.cfi_def_cfa_offset 252
	pushl	20(%esp)
	.cfi_def_cfa_offset 256
	call	realloc
	addl	$16, %esp
	.cfi_def_cfa_offset 240
	testl	%eax, %eax
	movl	52(%esp), %edx
	je	.L1912
	movl	%ebx, %ecx
	movl	%eax, 8(%esp)
.L1750:
	subl	$12, %edx
	subl	$4, %edi
	jmp	.L1749
.L1823:
	movl	%esi, %eax
	xorl	%ecx, %ecx
	movl	$0, 8(%esp)
	jmp	.L1746
.L1949:
	movl	72(%esp), %ecx
	leal	76(%esp), %edi
	testb	$7, %cl
	jne	.L1781
	xorl	%edx, %edx
	movl	%edi, %eax
	call	ucvector_push_back
	movl	72(%esp), %ecx
.L1781:
	movl	12(%esp), %eax
	andl	$7, %ecx
	movl	76(%esp), %edx
	sall	%cl, %eax
	movl	%eax, %ecx
	movl	80(%esp), %eax
	orb	%cl, -1(%edx,%eax)
	movl	72(%esp), %eax
	addl	$1, %eax
	testb	$7, %al
	movl	%eax, 72(%esp)
	jne	.L1754
	xorl	%edx, %edx
	movl	%edi, %eax
	call	ucvector_push_back
	movl	72(%esp), %eax
.L1754:
	addl	$1, %eax
	testb	$7, %al
	movl	%eax, 72(%esp)
	jne	.L1755
	xorl	%edx, %edx
	movl	%edi, %eax
	call	ucvector_push_back
	movl	72(%esp), %eax
.L1755:
	andl	$7, %eax
	movl	76(%esp), %edx
	movl	%eax, %ecx
	movl	$1, %eax
	sall	%cl, %eax
	movl	80(%esp), %ecx
	orb	%al, -1(%edx,%ecx)
	movl	44(%esp), %eax
	movl	8(%esp), %edx
	addl	$1, 72(%esp)
	movl	48(%esp), %ecx
	subl	$1, %eax
	movl	%eax, 44(%esp)
	leal	-4(%esi), %eax
	subl	$1, %esi
	movl	(%edx,%esi,4), %edx
	subl	$257, %ecx
	movl	%eax, 12(%esp)
	testl	%edx, %edx
	jne	.L1756
.L1910:
	testl	%eax, %eax
	je	.L1757
	movl	8(%esp), %esi
	subl	$1, %eax
	movl	12(%esi,%eax,4), %esi
	testl	%esi, %esi
	je	.L1910
	movl	%eax, 12(%esp)
.L1756:
	subl	$12, %esp
	.cfi_def_cfa_offset 252
	movl	%edi, %edx
	leal	84(%esp), %esi
	pushl	$5
	.cfi_def_cfa_offset 256
	movl	%esi, %eax
	call	addBitsToStream
	movl	60(%esp), %ecx
	movl	%edi, %edx
	movl	%esi, %eax
	movl	$5, (%esp)
	call	addBitsToStream
	movl	28(%esp), %ecx
	movl	%esi, %eax
	movl	%edi, %edx
	movl	$4, (%esp)
	call	addBitsToStream
	addl	$16, %esp
	.cfi_def_cfa_offset 240
	movl	12(%esp), %eax
	addl	$4, %eax
	movl	%eax, 44(%esp)
	je	.L1763
.L1759:
	movl	$0, 12(%esp)
.L1762:
	subl	$12, %esp
	.cfi_def_cfa_offset 252
	movl	%edi, %edx
	movl	24(%esp), %eax
	movl	20(%esp), %ecx
	movl	(%ecx,%eax,4), %ecx
	pushl	$3
	.cfi_def_cfa_offset 256
	movl	%esi, %eax
	call	addBitsToStream
	addl	$1, 28(%esp)
	movl	28(%esp), %eax
	addl	$16, %esp
	.cfi_def_cfa_offset 240
	cmpl	44(%esp), %eax
	jne	.L1762
.L1763:
	movl	116(%esp), %edx
	xorl	%eax, %eax
	testl	%edx, %edx
	je	.L1761
	movl	%ebp, 12(%esp)
	movb	%bl, 44(%esp)
	movl	%eax, %ebp
.L1850:
	movl	112(%esp), %eax
	subl	$12, %esp
	.cfi_def_cfa_offset 252
	leal	0(,%ebp,4), %ebx
	movl	180(%esp), %edx
	movl	(%eax,%ebp,4), %eax
	movl	(%edx,%eax,4), %ecx
	movl	184(%esp), %edx
	pushl	(%edx,%eax,4)
	.cfi_def_cfa_offset 256
	movl	%edi, %edx
	movl	%esi, %eax
	call	addBitsToStreamReversed
	movl	128(%esp), %eax
	addl	$16, %esp
	.cfi_def_cfa_offset 240
	movl	(%eax,%ebp,4), %edx
	cmpl	$16, %edx
	je	.L1950
	cmpl	$17, %edx
	je	.L1951
	cmpl	$18, %edx
	jne	.L1767
	subl	$12, %esp
	.cfi_def_cfa_offset 252
	movl	4(%eax,%ebx), %ecx
	movl	%edi, %edx
	pushl	$7
	.cfi_def_cfa_offset 256
	movl	%esi, %eax
	addl	$1, %ebp
	call	addBitsToStream
	addl	$16, %esp
	.cfi_def_cfa_offset 240
.L1767:
	addl	$1, %ebp
	cmpl	116(%esp), %ebp
	jne	.L1850
	movzbl	44(%esp), %ebx
	movl	12(%esp), %ebp
.L1761:
	subl	$4, %esp
	.cfi_def_cfa_offset 244
	movl	%edi, %edx
	leal	148(%esp), %eax
	pushl	%eax
	.cfi_def_cfa_offset 248
	leal	132(%esp), %eax
	pushl	%eax
	.cfi_def_cfa_offset 252
	leal	104(%esp), %eax
	pushl	%eax
	.cfi_def_cfa_offset 256
	movl	%esi, %eax
	leal	104(%esp), %ecx
	call	writeLZ77data.isra.7
	movl	148(%esp), %eax
	addl	$16, %esp
	.cfi_def_cfa_offset 240
	movl	1024(%eax), %eax
	testl	%eax, %eax
	jne	.L1952
	movl	16(%esp), %esi
	movl	$64, %ebp
	addl	$1, %esi
	jmp	.L1688
.L1912:
	movl	16(%esp), %esi
	xorl	%ebx, %ebx
	movl	$83, %ebp
	addl	$1, %esi
	jmp	.L1688
.L1757:
	subl	$12, %esp
	.cfi_def_cfa_offset 252
	movl	%edi, %edx
	leal	84(%esp), %esi
	pushl	$5
	.cfi_def_cfa_offset 256
	movl	%esi, %eax
	call	addBitsToStream
	movl	60(%esp), %ecx
	movl	%edi, %edx
	movl	%esi, %eax
	movl	$5, (%esp)
	call	addBitsToStream
	xorl	%ecx, %ecx
	movl	%edi, %edx
	movl	%esi, %eax
	movl	$4, (%esp)
	call	addBitsToStream
	addl	$16, %esp
	.cfi_def_cfa_offset 240
	movl	$4, 44(%esp)
	jmp	.L1759
.L1951:
	subl	$12, %esp
	.cfi_def_cfa_offset 252
	movl	4(%eax,%ebx), %ecx
	movl	%edi, %edx
	pushl	$3
	.cfi_def_cfa_offset 256
	movl	%esi, %eax
	addl	$1, %ebp
	call	addBitsToStream
	addl	$16, %esp
	.cfi_def_cfa_offset 240
	jmp	.L1767
.L1950:
	subl	$12, %esp
	.cfi_def_cfa_offset 252
	movl	4(%eax,%ebx), %ecx
	movl	%edi, %edx
	pushl	$2
	.cfi_def_cfa_offset 256
	movl	%esi, %eax
	addl	$1, %ebp
	call	addBitsToStream
	addl	$16, %esp
	.cfi_def_cfa_offset 240
	jmp	.L1767
.L1952:
	subl	$12, %esp
	.cfi_def_cfa_offset 252
	movl	140(%esp), %edx
	movl	1024(%edx), %ecx
	pushl	%eax
	.cfi_def_cfa_offset 256
	movl	%edi, %edx
	movl	%esi, %eax
	call	addBitsToStreamReversed
	movl	32(%esp), %esi
	addl	$16, %esp
	.cfi_def_cfa_offset 240
	addl	$1, %esi
	cmpl	%esi, 28(%esp)
	setne	%bl
	jmp	.L1688
	.cfi_endproc
.LFE86:
	.size	lodepng_deflate, .-lodepng_deflate
	.section	.text.unlikely
.LCOLDE34:
	.text
.LHOTE34:
	.section	.text.unlikely
.LCOLDB35:
	.text
.LHOTB35:
	.p2align 4,,15
	.globl	lodepng_zlib_decompress
	.type	lodepng_zlib_decompress, @function
lodepng_zlib_decompress:
.LFB90:
	.cfi_startproc
	pushl	%ebp
	.cfi_def_cfa_offset 8
	.cfi_offset 5, -8
	pushl	%edi
	.cfi_def_cfa_offset 12
	.cfi_offset 7, -12
	pushl	%esi
	.cfi_def_cfa_offset 16
	.cfi_offset 6, -16
	pushl	%ebx
	.cfi_def_cfa_offset 20
	.cfi_offset 3, -20
	subl	$28, %esp
	.cfi_def_cfa_offset 48
	movl	48(%esp), %eax
	movl	60(%esp), %edi
	movl	56(%esp), %esi
	movl	64(%esp), %ebp
	movl	%eax, 8(%esp)
	movl	52(%esp), %eax
	cmpl	$1, %edi
	movl	%eax, 4(%esp)
	jbe	.L1955
	movzbl	(%esi), %ebx
	movzbl	1(%esi), %eax
	movl	$-2078209981, %edx
	movl	%ebx, %ecx
	sall	$8, %ebx
	movb	%al, 15(%esp)
	addl	%eax, %ebx
	movl	%ebx, %eax
	imull	%edx
	addl	%ebx, %edx
	sarl	$4, %edx
	movl	%edx, %eax
	sall	$5, %eax
	subl	%edx, %eax
	movl	%eax, %edx
	movl	$24, %eax
	cmpl	%edx, %ebx
	je	.L1961
.L1954:
	addl	$28, %esp
	.cfi_remember_state
	.cfi_def_cfa_offset 20
	popl	%ebx
	.cfi_restore 3
	.cfi_def_cfa_offset 16
	popl	%esi
	.cfi_restore 6
	.cfi_def_cfa_offset 12
	popl	%edi
	.cfi_restore 7
	.cfi_def_cfa_offset 8
	popl	%ebp
	.cfi_restore 5
	.cfi_def_cfa_offset 4
	ret
	.p2align 4,,10
	.p2align 3
.L1955:
	.cfi_restore_state
	addl	$28, %esp
	.cfi_remember_state
	.cfi_def_cfa_offset 20
	movl	$53, %eax
	popl	%ebx
	.cfi_restore 3
	.cfi_def_cfa_offset 16
	popl	%esi
	.cfi_restore 6
	.cfi_def_cfa_offset 12
	popl	%edi
	.cfi_restore 7
	.cfi_def_cfa_offset 8
	popl	%ebp
	.cfi_restore 5
	.cfi_def_cfa_offset 4
	ret
	.p2align 4,,10
	.p2align 3
.L1961:
	.cfi_restore_state
	testb	%cl, %cl
	js	.L1957
	andl	$15, %ecx
	cmpb	$8, %cl
	jne	.L1957
	testb	$32, 15(%esp)
	movb	$26, %al
	jne	.L1954
	leal	-2(%edi), %eax
	subl	$8, %esp
	.cfi_def_cfa_offset 56
	leal	2(%esi), %ecx
	pushl	%ebp
	.cfi_def_cfa_offset 60
	pushl	%eax
	.cfi_def_cfa_offset 64
	movl	24(%esp), %ebx
	movl	20(%esp), %edx
	movl	%ebx, %eax
	call	inflate
	addl	$16, %esp
	.cfi_def_cfa_offset 48
	testl	%eax, %eax
	jne	.L1954
	movl	%ebp, 52(%esp)
	movl	%edi, 48(%esp)
	movl	%esi, %ecx
	movl	4(%esp), %edx
	addl	$28, %esp
	.cfi_remember_state
	.cfi_def_cfa_offset 20
	movl	%ebx, %eax
	popl	%ebx
	.cfi_restore 3
	.cfi_def_cfa_offset 16
	popl	%esi
	.cfi_restore 6
	.cfi_def_cfa_offset 12
	popl	%edi
	.cfi_restore 7
	.cfi_def_cfa_offset 8
	popl	%ebp
	.cfi_restore 5
	.cfi_def_cfa_offset 4
	jmp	lodepng_zlib_decompress.part.12
	.p2align 4,,10
	.p2align 3
.L1957:
	.cfi_restore_state
	addl	$28, %esp
	.cfi_def_cfa_offset 20
	movl	$25, %eax
	popl	%ebx
	.cfi_restore 3
	.cfi_def_cfa_offset 16
	popl	%esi
	.cfi_restore 6
	.cfi_def_cfa_offset 12
	popl	%edi
	.cfi_restore 7
	.cfi_def_cfa_offset 8
	popl	%ebp
	.cfi_restore 5
	.cfi_def_cfa_offset 4
	ret
	.cfi_endproc
.LFE90:
	.size	lodepng_zlib_decompress, .-lodepng_zlib_decompress
	.section	.text.unlikely
.LCOLDE35:
	.text
.LHOTE35:
	.section	.text.unlikely
.LCOLDB36:
	.text
.LHOTB36:
	.p2align 4,,15
	.globl	lodepng_zlib_compress
	.type	lodepng_zlib_compress, @function
lodepng_zlib_compress:
.LFB92:
	.cfi_startproc
	pushl	%ebp
	.cfi_def_cfa_offset 8
	.cfi_offset 5, -8
	pushl	%edi
	.cfi_def_cfa_offset 12
	.cfi_offset 7, -12
	pushl	%esi
	.cfi_def_cfa_offset 16
	.cfi_offset 6, -16
	pushl	%ebx
	.cfi_def_cfa_offset 20
	.cfi_offset 3, -20
	subl	$108, %esp
	.cfi_def_cfa_offset 128
	movl	132(%esp), %eax
	movl	136(%esp), %ebx
	movl	140(%esp), %edi
	movl	$0, 88(%esp)
	movl	$0, 92(%esp)
	movl	(%eax), %esi
	movl	128(%esp), %eax
	leal	1(%esi), %ebp
	movl	(%eax), %eax
	cmpl	%ebp, %esi
	movl	%eax, 12(%esp)
	jnb	.L1985
	leal	(%esi,%esi), %eax
	cmpl	%eax, %ebp
	jbe	.L2001
	subl	$8, %esp
	.cfi_def_cfa_offset 136
	pushl	%ebp
	.cfi_def_cfa_offset 140
	pushl	24(%esp)
	.cfi_def_cfa_offset 144
	call	realloc
	addl	$16, %esp
	.cfi_def_cfa_offset 128
	testl	%eax, %eax
	je	.L2002
	movl	%ebp, 68(%esp)
.L2000:
	movl	%eax, 12(%esp)
.L1963:
	movb	$120, (%eax,%esi)
	leal	2(%esi), %eax
	cmpl	68(%esp), %eax
	movl	%eax, 64(%esp)
	ja	.L1980
.L1984:
	movl	12(%esp), %eax
	movl	64(%esp), %esi
	movb	$1, -1(%eax,%esi)
.L1981:
	movl	144(%esp), %eax
	movl	28(%eax), %eax
	testl	%eax, %eax
	je	.L1967
	subl	$12, %esp
	.cfi_def_cfa_offset 140
	pushl	156(%esp)
	.cfi_def_cfa_offset 144
	pushl	%edi
	.cfi_def_cfa_offset 148
	pushl	%ebx
	.cfi_def_cfa_offset 152
	leal	116(%esp), %edx
	pushl	%edx
	.cfi_def_cfa_offset 156
	leal	116(%esp), %edx
	pushl	%edx
	.cfi_def_cfa_offset 160
	call	*%eax
	movl	%eax, 104(%esp)
	addl	$32, %esp
	.cfi_def_cfa_offset 128
.L1968:
	movl	72(%esp), %edx
	testl	%edx, %edx
	je	.L2003
.L1969:
	movl	128(%esp), %eax
	movl	12(%esp), %edi
	movl	%edi, (%eax)
	movl	132(%esp), %eax
	movl	64(%esp), %edi
	movl	%edi, (%eax)
	movl	72(%esp), %eax
	addl	$108, %esp
	.cfi_remember_state
	.cfi_def_cfa_offset 20
	popl	%ebx
	.cfi_restore 3
	.cfi_def_cfa_offset 16
	popl	%esi
	.cfi_restore 6
	.cfi_def_cfa_offset 12
	popl	%edi
	.cfi_restore 7
	.cfi_def_cfa_offset 8
	popl	%ebp
	.cfi_restore 5
	.cfi_def_cfa_offset 4
	ret
.L2001:
	.cfi_restore_state
	leal	0(%ebp,%ebp,2), %eax
	subl	$8, %esp
	.cfi_def_cfa_offset 136
	shrl	%eax
	movl	%eax, 76(%esp)
	pushl	%eax
	.cfi_def_cfa_offset 140
	pushl	24(%esp)
	.cfi_def_cfa_offset 144
	call	realloc
	addl	$16, %esp
	.cfi_def_cfa_offset 128
	testl	%eax, %eax
	jne	.L2000
	movl	%ebp, 64(%esp)
	movl	%esi, 68(%esp)
	movl	%esi, %ebp
.L1965:
	movl	64(%esp), %eax
	movl	12(%esp), %ecx
	movl	68(%esp), %esi
	leal	(%eax,%eax,2), %eax
	movl	%ecx, 72(%esp)
	shrl	%eax
	movl	%eax, 68(%esp)
.L1966:
	subl	$8, %esp
	.cfi_def_cfa_offset 136
	pushl	76(%esp)
	.cfi_def_cfa_offset 140
	pushl	24(%esp)
	.cfi_def_cfa_offset 144
	call	realloc
	movl	%eax, 28(%esp)
	addl	$16, %esp
	.cfi_def_cfa_offset 128
	testl	%eax, %eax
	jne	.L1984
	movl	72(%esp), %eax
	movl	%esi, 68(%esp)
	movl	%ebp, 64(%esp)
	movl	%eax, 12(%esp)
	jmp	.L1981
.L1985:
	movl	%esi, 68(%esp)
	movl	12(%esp), %eax
	jmp	.L1963
.L2003:
	testl	%edi, %edi
	je	.L1988
	movl	$1, %ecx
	xorl	%esi, %esi
	movl	$-2146992015, %ebp
	.p2align 4,,10
	.p2align 3
.L1973:
	cmpl	$5550, %edi
	movl	%edi, %edx
	jbe	.L1971
	movl	$5550, %edx
.L1971:
	subl	%edx, %edi
	addl	%ebx, %edx
	.p2align 4,,10
	.p2align 3
.L1972:
	addl	$1, %ebx
	movzbl	-1(%ebx), %eax
	addl	%eax, %ecx
	addl	%ecx, %esi
	cmpl	%edx, %ebx
	jne	.L1972
	movl	%ecx, %eax
	mull	%ebp
	movl	%esi, %eax
	shrl	$15, %edx
	imull	$65521, %edx, %edx
	subl	%edx, %ecx
	mull	%ebp
	shrl	$15, %edx
	imull	$65521, %edx, %edx
	subl	%edx, %esi
	testl	%edi, %edi
	jne	.L1973
	sall	$16, %esi
	orl	%esi, %ecx
	movl	%ecx, %eax
	movb	%cl, 79(%esp)
	shrl	$24, %eax
	movl	%eax, 16(%esp)
	movl	%ecx, %eax
	shrl	$16, %eax
	movl	%eax, 32(%esp)
	movl	%ecx, %eax
	shrl	$8, %eax
	movl	%eax, 48(%esp)
.L1970:
	movl	92(%esp), %eax
	movl	64(%esp), %ebp
	movl	12(%esp), %edx
	testl	%eax, %eax
	je	.L1974
	movl	%edx, %ecx
	xorl	%esi, %esi
	movl	%ebp, %edx
	movl	68(%esp), %ebp
	jmp	.L1977
	.p2align 4,,10
	.p2align 3
.L2005:
	leal	(%ebp,%ebp), %eax
	movl	%ebx, %edi
	cmpl	%eax, %ebx
	ja	.L1976
	leal	(%ebx,%ebx,2), %edi
	shrl	%edi
.L1976:
	movl	%edx, 68(%esp)
	subl	$8, %esp
	.cfi_def_cfa_offset 136
	pushl	%edi
	.cfi_def_cfa_offset 140
	pushl	%ecx
	.cfi_def_cfa_offset 144
	movl	%ecx, 80(%esp)
	call	realloc
	addl	$16, %esp
	.cfi_def_cfa_offset 128
	testl	%eax, %eax
	movl	64(%esp), %ecx
	movl	68(%esp), %edx
	je	.L1982
.L1975:
	movzbl	12(%esp), %ecx
	movl	%edi, %ebp
	movb	%cl, (%eax,%edx)
	movl	%ebx, %edx
	movl	%eax, %ecx
.L1982:
	addl	$1, %esi
	cmpl	%esi, 92(%esp)
	je	.L2004
.L1977:
	movl	88(%esp), %eax
	leal	1(%edx), %ebx
	cmpl	%ebx, %ebp
	movzbl	(%eax,%esi), %eax
	movb	%al, 12(%esp)
	jb	.L2005
	movl	%ebp, %edi
	movl	%ecx, %eax
	jmp	.L1975
.L2004:
	movl	%ebp, 68(%esp)
	movl	%edx, %ebp
	movl	%ecx, %edx
.L1974:
	movl	%edx, 12(%esp)
	subl	$12, %esp
	.cfi_def_cfa_offset 140
	pushl	100(%esp)
	.cfi_def_cfa_offset 144
	call	free
	leal	4(%ebp), %eax
	movl	%eax, 80(%esp)
	addl	$16, %esp
	.cfi_def_cfa_offset 128
	movl	68(%esp), %edi
	movl	12(%esp), %edx
	cmpl	%edi, %eax
	jbe	.L1983
	movl	%edi, %ecx
	addl	%ecx, %ecx
	cmpl	%ecx, %eax
	jbe	.L2006
.L1979:
	subl	$8, %esp
	.cfi_def_cfa_offset 136
	pushl	%eax
	.cfi_def_cfa_offset 140
	pushl	%edx
	.cfi_def_cfa_offset 144
	movl	%edx, 84(%esp)
	call	realloc
	movl	%eax, 28(%esp)
	addl	$16, %esp
	.cfi_def_cfa_offset 128
	testl	%eax, %eax
	movl	68(%esp), %edx
	je	.L2007
.L1983:
	movl	12(%esp), %eax
	movl	64(%esp), %edi
	movzbl	16(%esp), %ecx
	leal	-4(%eax,%edi), %eax
	movb	%cl, (%eax)
	movzbl	32(%esp), %ecx
	movb	%cl, 1(%eax)
	movzbl	48(%esp), %ecx
	movb	%cl, 2(%eax)
	movzbl	79(%esp), %ecx
	movb	%cl, 3(%eax)
	jmp	.L1969
.L1980:
	movl	68(%esp), %eax
	addl	%eax, %eax
	cmpl	%eax, 64(%esp)
	jbe	.L1965
	movl	12(%esp), %eax
	movl	68(%esp), %esi
	movl	%eax, 72(%esp)
	movl	64(%esp), %eax
	movl	%eax, 68(%esp)
	jmp	.L1966
.L1967:
	subl	$12, %esp
	.cfi_def_cfa_offset 140
	pushl	156(%esp)
	.cfi_def_cfa_offset 144
	pushl	%edi
	.cfi_def_cfa_offset 148
	pushl	%ebx
	.cfi_def_cfa_offset 152
	leal	116(%esp), %eax
	pushl	%eax
	.cfi_def_cfa_offset 156
	leal	116(%esp), %eax
	pushl	%eax
	.cfi_def_cfa_offset 160
	call	lodepng_deflate
	movl	%eax, 104(%esp)
	addl	$32, %esp
	.cfi_def_cfa_offset 128
	jmp	.L1968
.L2006:
	movl	64(%esp), %eax
	leal	(%eax,%eax,2), %eax
	shrl	%eax
	jmp	.L1979
.L1988:
	movb	$1, 79(%esp)
	movb	$0, 48(%esp)
	movb	$0, 32(%esp)
	movb	$0, 16(%esp)
	jmp	.L1970
.L2002:
	movl	12(%esp), %eax
	movl	%ebp, 64(%esp)
	movl	%ebp, 68(%esp)
	movl	%esi, %ebp
	movl	%eax, 72(%esp)
	jmp	.L1966
.L2007:
	movl	%ebp, 64(%esp)
	movl	%edx, 12(%esp)
	jmp	.L1983
	.cfi_endproc
.LFE92:
	.size	lodepng_zlib_compress, .-lodepng_zlib_compress
	.section	.text.unlikely
.LCOLDE36:
	.text
.LHOTE36:
	.section	.text.unlikely
.LCOLDB49:
	.text
.LHOTB49:
	.p2align 4,,15
	.type	filter.isra.16, @function
filter.isra.16:
.LFB241:
	.cfi_startproc
	pushl	%ebp
	.cfi_def_cfa_offset 8
	.cfi_offset 5, -8
	pushl	%edi
	.cfi_def_cfa_offset 12
	.cfi_offset 7, -12
	pushl	%esi
	.cfi_def_cfa_offset 16
	.cfi_offset 6, -16
	pushl	%ebx
	.cfi_def_cfa_offset 20
	.cfi_offset 3, -20
	subl	$1180, %esp
	.cfi_def_cfa_offset 1200
	cmpl	$6, 1204(%esp)
	movl	1212(%esp), %ebx
	ja	.L2009
	movl	%eax, %edi
	movl	1204(%esp), %eax
	movl	%edx, %esi
	movl	1208(%esp), %edx
	imull	CSWTCH.141(,%eax,4), %edx
	movl	%ecx, %eax
	movl	44(%ebx), %ecx
	imull	%edx, %eax
	addl	$7, %eax
	shrl	$3, %eax
	movl	%eax, %ebp
	leal	7(%edx), %eax
	shrl	$3, %eax
	movl	%eax, 32(%esp)
	movl	40(%ebx), %eax
	testl	%eax, %eax
	jne	.L2131
.L2010:
	testl	%edx, %edx
	movl	$31, %eax
	jne	.L2132
.L2092:
	addl	$1180, %esp
	.cfi_remember_state
	.cfi_def_cfa_offset 20
	popl	%ebx
	.cfi_restore 3
	.cfi_def_cfa_offset 16
	popl	%esi
	.cfi_restore 6
	.cfi_def_cfa_offset 12
	popl	%edi
	.cfi_restore 7
	.cfi_def_cfa_offset 8
	popl	%ebp
	.cfi_restore 5
	.cfi_def_cfa_offset 4
	ret
.L2131:
	.cfi_restore_state
	cmpl	$7, 1208(%esp)
	jbe	.L2011
	cmpl	$3, 1204(%esp)
	jne	.L2010
.L2011:
	testl	%edx, %edx
	movl	$31, %eax
	je	.L2092
.L2072:
	movl	1200(%esp), %eax
	testl	%eax, %eax
	je	.L2128
	leal	1(%ebp), %eax
	leal	1(%edi), %ebx
	xorl	%ecx, %ecx
	xorl	%edi, %edi
	movl	%eax, (%esp)
.L2015:
	movl	%esi, 16(%esp)
	movb	$0, -1(%ebx)
	movl	%esi, %edx
	pushl	$0
	.cfi_def_cfa_offset 1204
	pushl	36(%esp)
	.cfi_def_cfa_offset 1208
	movl	%ebx, %eax
	pushl	%ebp
	.cfi_def_cfa_offset 1212
	addl	$1, %edi
	addl	%ebp, %esi
	call	filterScanline
	addl	12(%esp), %ebx
	movl	28(%esp), %ecx
	addl	$12, %esp
	.cfi_def_cfa_offset 1200
	cmpl	1200(%esp), %edi
	jne	.L2015
.L2128:
	xorl	%eax, %eax
.L2139:
	addl	$1180, %esp
	.cfi_remember_state
	.cfi_def_cfa_offset 20
	popl	%ebx
	.cfi_restore 3
	.cfi_def_cfa_offset 16
	popl	%esi
	.cfi_restore 6
	.cfi_def_cfa_offset 12
	popl	%edi
	.cfi_restore 7
	.cfi_def_cfa_offset 8
	popl	%ebp
	.cfi_restore 5
	.cfi_def_cfa_offset 4
	ret
.L2009:
	.cfi_restore_state
	addl	$1180, %esp
	.cfi_remember_state
	.cfi_def_cfa_offset 20
	movl	$31, %eax
	popl	%ebx
	.cfi_restore 3
	.cfi_def_cfa_offset 16
	popl	%esi
	.cfi_restore 6
	.cfi_def_cfa_offset 12
	popl	%edi
	.cfi_restore 7
	.cfi_def_cfa_offset 8
	popl	%ebp
	.cfi_restore 5
	.cfi_def_cfa_offset 4
	ret
.L2132:
	.cfi_restore_state
	testl	%ecx, %ecx
	je	.L2072
	cmpl	$1, %ecx
	je	.L2133
	cmpl	$2, %ecx
	je	.L2134
	cmpl	$4, %ecx
	je	.L2135
	cmpl	$3, %ecx
	movl	$88, %eax
	jne	.L2092
	movl	4(%ebx), %eax
	movl	$1, 144(%esp)
	movl	$0, 168(%esp)
	movl	$0, 172(%esp)
	movl	%eax, 148(%esp)
	movl	8(%ebx), %eax
	movl	%eax, 152(%esp)
	movl	12(%ebx), %eax
	movl	%eax, 156(%esp)
	movl	16(%ebx), %eax
	movl	%eax, 160(%esp)
	movl	20(%ebx), %eax
	movl	%eax, 164(%esp)
	movl	32(%ebx), %eax
	xorl	%ebx, %ebx
	movl	%eax, 176(%esp)
	leal	124(%esp), %eax
	movl	%eax, 36(%esp)
	jmp	.L2060
	.p2align 4,,10
	.p2align 3
.L2059:
	addl	$1, %ebx
	cmpl	$5, %ebx
	je	.L2136
.L2060:
	subl	$12, %esp
	.cfi_def_cfa_offset 1212
	pushl	%ebp
	.cfi_def_cfa_offset 1216
	call	malloc
	movl	52(%esp), %ecx
	addl	$16, %esp
	.cfi_def_cfa_offset 1200
	testl	%eax, %eax
	movl	%eax, (%ecx,%ebx,4)
	jne	.L2059
.L2130:
	movb	$83, %al
	jmp	.L2092
	.p2align 4,,10
	.p2align 3
.L2133:
	leal	144(%esp), %eax
	movl	%eax, 28(%esp)
	movl	%eax, 60(%esp)
	movl	%eax, %ebx
.L2019:
	subl	$12, %esp
	.cfi_def_cfa_offset 1212
	pushl	%ebp
	.cfi_def_cfa_offset 1216
	call	malloc
	addl	$16, %esp
	.cfi_def_cfa_offset 1200
	testl	%eax, %eax
	movl	%eax, (%ebx)
	je	.L2130
	leal	164(%esp), %eax
	addl	$4, %ebx
	cmpl	%eax, %ebx
	jne	.L2019
	movl	1200(%esp), %eax
	testl	%eax, %eax
	je	.L2122
	leal	1(%ebp), %eax
	movl	%esi, 36(%esp)
	movl	$0, 40(%esp)
	movl	$0, 56(%esp)
	movb	$0, 48(%esp)
	movl	$255, %esi
	movl	%eax, 80(%esp)
	leal	1(%edi), %eax
	movl	$0, 16(%esp)
	movl	%ebp, %edi
	movl	%eax, 52(%esp)
.L2021:
	movl	36(%esp), %eax
	xorl	%ebx, %ebx
	movl	%eax, 64(%esp)
.L2030:
	movl	28(%esp), %eax
	movb	%bl, 44(%esp)
	subl	$4, %esp
	.cfi_def_cfa_offset 1204
	movl	(%eax,%ebx,4), %ebp
	pushl	%ebx
	.cfi_def_cfa_offset 1208
	pushl	40(%esp)
	.cfi_def_cfa_offset 1212
	pushl	%edi
	.cfi_def_cfa_offset 1216
	movl	56(%esp), %ecx
	movl	52(%esp), %edx
	movl	%ebp, %eax
	call	filterScanline
	addl	$16, %esp
	.cfi_def_cfa_offset 1200
	testl	%ebx, %ebx
	je	.L2022
	xorl	%ecx, %ecx
	testl	%edi, %edi
	movl	%ebp, %edx
	leal	0(%ebp,%edi), %ebp
	je	.L2137
	movl	%ebx, (%esp)
	jmp	.L2093
	.p2align 4,,10
	.p2align 3
.L2028:
	addl	$1, %edx
	addl	%eax, %ecx
	cmpl	%ebp, %edx
	je	.L2138
.L2093:
	movzbl	(%edx), %eax
	testb	%al, %al
	jns	.L2028
	movl	%esi, %ebx
	addl	$1, %edx
	subl	%eax, %ebx
	movl	%ebx, %eax
	addl	%eax, %ecx
	cmpl	%ebp, %edx
	jne	.L2093
.L2138:
	movl	(%esp), %ebx
.L2024:
	cmpl	%ecx, 16(%esp)
	jbe	.L2073
	movl	%ecx, 16(%esp)
.L2025:
	movzbl	44(%esp), %eax
	movb	%al, 48(%esp)
.L2073:
	addl	$1, %ebx
	cmpl	$5, %ebx
	jne	.L2030
	movzbl	48(%esp), %eax
	movl	52(%esp), %ecx
	testl	%edi, %edi
	movb	%al, -1(%ecx)
	je	.L2032
	movzbl	48(%esp), %eax
	subl	$4, %esp
	.cfi_def_cfa_offset 1204
	pushl	%edi
	.cfi_def_cfa_offset 1208
	pushl	152(%esp,%eax,4)
	.cfi_def_cfa_offset 1212
	pushl	64(%esp)
	.cfi_def_cfa_offset 1216
	call	memcpy
	addl	$16, %esp
	.cfi_def_cfa_offset 1200
.L2032:
	addl	$1, 56(%esp)
	addl	%edi, 36(%esp)
	movl	56(%esp), %eax
	movl	80(%esp), %ebx
	addl	%ebx, 52(%esp)
	cmpl	1200(%esp), %eax
	movl	64(%esp), %ecx
	movl	%ecx, 40(%esp)
	jne	.L2021
.L2122:
	movl	60(%esp), %ebx
.L2033:
	subl	$12, %esp
	.cfi_def_cfa_offset 1212
	pushl	(%ebx)
	.cfi_def_cfa_offset 1216
	addl	$4, %ebx
	call	free
	addl	$16, %esp
	.cfi_def_cfa_offset 1200
	leal	164(%esp), %eax
	cmpl	%eax, %ebx
	jne	.L2033
	xorl	%eax, %eax
	jmp	.L2139
.L2137:
	movl	%edi, %ecx
	jmp	.L2024
.L2134:
	leal	124(%esp), %eax
	xorl	%ebx, %ebx
	movl	%eax, 36(%esp)
.L2036:
	subl	$12, %esp
	.cfi_def_cfa_offset 1212
	pushl	%ebp
	.cfi_def_cfa_offset 1216
	call	malloc
	movl	52(%esp), %ecx
	addl	$16, %esp
	.cfi_def_cfa_offset 1200
	testl	%eax, %eax
	movl	%eax, (%ecx,%ebx,4)
	je	.L2130
	addl	$1, %ebx
	cmpl	$5, %ebx
	jne	.L2036
	movl	1200(%esp), %ebx
	testl	%ebx, %ebx
	je	.L2037
	fldz
	leal	1(%ebp), %eax
	movl	%esi, 48(%esp)
	leal	1168(%esp), %esi
	movl	$0, 56(%esp)
	movl	$0, 80(%esp)
	fstps	44(%esp)
	movl	%eax, 84(%esp)
	leal	1(%edi), %eax
	movl	$0, 52(%esp)
	movl	%ebp, 40(%esp)
	movl	%eax, 60(%esp)
	leal	144(%esp), %eax
	fildl	84(%esp)
	movl	%eax, 28(%esp)
	fstpt	64(%esp)
.L2038:
	movl	48(%esp), %eax
	xorl	%ebp, %ebp
	movl	%eax, 88(%esp)
.L2055:
	movl	36(%esp), %eax
	subl	$4, %esp
	.cfi_def_cfa_offset 1204
	movl	(%eax,%ebp,4), %ebx
	pushl	%ebp
	.cfi_def_cfa_offset 1208
	pushl	40(%esp)
	.cfi_def_cfa_offset 1212
	pushl	52(%esp)
	.cfi_def_cfa_offset 1216
	movl	72(%esp), %ecx
	movl	64(%esp), %edx
	movl	%ebx, %eax
	call	filterScanline
	movl	44(%esp), %edi
	xorl	%eax, %eax
	addl	$16, %esp
	.cfi_def_cfa_offset 1200
	movl	$256, %ecx
	rep stosl
	movl	40(%esp), %eax
	testl	%eax, %eax
	leal	(%ebx,%eax), %edx
	je	.L2042
	.p2align 4,,10
	.p2align 3
.L2096:
	movzbl	(%ebx), %eax
	addl	$1, %ebx
	addl	$1, 144(%esp,%eax,4)
	cmpl	%edx, %ebx
	jne	.L2096
.L2042:
	fldt	64(%esp)
	movl	28(%esp), %eax
	addl	$1, (%eax,%ebp,4)
	movl	%eax, %edx
	fstps	92(%esp)
	flds	92(%esp)
	fstpt	(%esp)
	fldz
	fld1
	jmp	.L2040
	.p2align 4,,10
	.p2align 3
.L2076:
	fldz
.L2043:
	faddp	%st, %st(2)
	fxch	%st(1)
	addl	$4, %edx
	cmpl	%esi, %edx
	fstps	92(%esp)
	flds	92(%esp)
	je	.L2140
	fxch	%st(1)
.L2040:
	movl	(%edx), %eax
	testl	%eax, %eax
	je	.L2076
	movl	%eax, 16(%esp)
	movl	$0, 20(%esp)
	fildq	16(%esp)
	fstps	92(%esp)
	flds	92(%esp)
	fldt	(%esp)
	fdivrp	%st, %st(1)
	fstps	92(%esp)
	flds	92(%esp)
	fld	%st(0)
	fdivrs	.LC38
	fstps	92(%esp)
	flds	92(%esp)
	fldz
	flds	.LC39
	fxch	%st(2)
	fucom	%st(2)
	fnstsw	%ax
	fstp	%st(2)
	sahf
	jbe	.L2142
	flds	.LC40
	jmp	.L2095
	.p2align 4,,10
	.p2align 3
.L2143:
	fxch	%st(2)
	fxch	%st(1)
.L2095:
	fadd	%st, %st(1)
	fxch	%st(1)
	fstps	92(%esp)
	flds	92(%esp)
	fxch	%st(2)
	fmuls	.LC41
	fstps	92(%esp)
	flds	92(%esp)
	flds	.LC39
	fxch	%st(1)
	fucom	%st(1)
	fnstsw	%ax
	fstp	%st(1)
	sahf
	ja	.L2143
	fstp	%st(1)
	jmp	.L2126
	.p2align 4,,10
	.p2align 3
.L2094:
	fxch	%st(1)
	fadd	%st(3), %st
	fstps	92(%esp)
	flds	92(%esp)
	fxch	%st(1)
	fmuls	.LC44
	fstps	92(%esp)
	flds	92(%esp)
	jmp	.L2126
.L2142:
	fxch	%st(1)
	.p2align 4,,10
	.p2align 3
.L2126:
	flds	.LC42
	fxch	%st(1)
	fucom	%st(1)
	fnstsw	%ax
	fstp	%st(1)
	sahf
	ja	.L2094
	flds	.LC45
	fld	%st(1)
	fmul	%st(1), %st
	fld	%st(2)
	fmul	%st(3), %st
	fmul	%st(3), %st
	fdivp	%st, %st(2)
	fmul	%st, %st(2)
	fxch	%st(2)
	fmuls	.LC44
	fsubrp	%st, %st(1)
	faddp	%st, %st(1)
	fldt	.LC46
	fsubrp	%st, %st(1)
	fldt	.LC47
	fmulp	%st, %st(1)
	faddp	%st, %st(1)
	fstps	92(%esp)
	flds	92(%esp)
	fmulp	%st, %st(1)
	jmp	.L2043
.L2140:
	fstp	%st(1)
	testl	%ebp, %ebp
	je	.L2050
	flds	44(%esp)
	fucom	%st(1)
	fnstsw	%ax
	sahf
	ja	.L2078
	fstp	%st(1)
	addl	$1, %ebp
	cmpl	$5, %ebp
	je	.L2141
.L2052:
	fstps	44(%esp)
	jmp	.L2055
.L2078:
	fstp	%st(0)
	movl	%ebp, 52(%esp)
	addl	$1, %ebp
	cmpl	$5, %ebp
	jne	.L2052
.L2141:
	movzbl	52(%esp), %eax
	movl	40(%esp), %ecx
	fstps	44(%esp)
	movl	60(%esp), %edi
	testl	%ecx, %ecx
	movb	%al, -1(%edi)
	je	.L2054
	subl	$4, %esp
	.cfi_def_cfa_offset 1204
	pushl	44(%esp)
	.cfi_def_cfa_offset 1208
	movl	60(%esp), %eax
	pushl	132(%esp,%eax,4)
	.cfi_def_cfa_offset 1212
	pushl	72(%esp)
	.cfi_def_cfa_offset 1216
	call	memcpy
	addl	$16, %esp
	.cfi_def_cfa_offset 1200
.L2054:
	addl	$1, 80(%esp)
	movl	40(%esp), %ecx
	movl	80(%esp), %eax
	addl	%ecx, 48(%esp)
	movl	84(%esp), %ecx
	addl	%ecx, 60(%esp)
	cmpl	1200(%esp), %eax
	movl	88(%esp), %edi
	movl	%edi, 56(%esp)
	jne	.L2038
.L2037:
	xorl	%ebx, %ebx
.L2056:
	subl	$12, %esp
	.cfi_def_cfa_offset 1212
	movl	48(%esp), %eax
	pushl	(%eax,%ebx,4)
	.cfi_def_cfa_offset 1216
	addl	$1, %ebx
	call	free
	addl	$16, %esp
	.cfi_def_cfa_offset 1200
	cmpl	$5, %ebx
	jne	.L2056
	xorl	%eax, %eax
	jmp	.L2139
.L2135:
	movl	1200(%esp), %edx
	testl	%edx, %edx
	je	.L2128
	leal	1(%ebp), %eax
	movl	%esi, 16(%esp)
	xorb	%cl, %cl
	leal	1(%edi), %esi
	xorl	%edi, %edi
	movl	%eax, 28(%esp)
.L2058:
	movl	48(%ebx), %eax
	movl	16(%esp), %edx
	subl	$4, %esp
	.cfi_def_cfa_offset 1204
	movzbl	(%eax,%edi), %eax
	movl	%edx, 4(%esp)
	addl	$1, %edi
	movb	%al, -1(%esi)
	pushl	%eax
	.cfi_def_cfa_offset 1208
	movl	%esi, %eax
	pushl	40(%esp)
	.cfi_def_cfa_offset 1212
	pushl	%ebp
	.cfi_def_cfa_offset 1216
	movl	%edx, 32(%esp)
	call	filterScanline
	addl	%ebp, 32(%esp)
	addl	44(%esp), %esi
	movl	16(%esp), %ecx
	addl	$16, %esp
	.cfi_def_cfa_offset 1200
	cmpl	1200(%esp), %edi
	jne	.L2058
	xorl	%eax, %eax
	jmp	.L2139
.L2022:
	testl	%edi, %edi
	je	.L2075
	movl	%ebp, %edx
	leal	0(%ebp,%edi), %ebp
	xorl	%eax, %eax
.L2026:
	movzbl	(%edx), %ecx
	addl	$1, %edx
	addl	%ecx, %eax
	cmpl	%ebp, %edx
	jne	.L2026
	movl	%eax, 16(%esp)
	jmp	.L2025
.L2075:
	movl	$0, 16(%esp)
	jmp	.L2025
.L2050:
	movl	$0, 52(%esp)
	movl	$1, %ebp
	jmp	.L2052
.L2136:
	movl	1200(%esp), %eax
	testl	%eax, %eax
	je	.L2061
	leal	1(%ebp), %eax
	movl	%esi, 16(%esp)
	addl	$1, %edi
	movl	$0, 48(%esp)
	movl	$0, 40(%esp)
	movl	%eax, 52(%esp)
	leal	144(%esp), %eax
	movl	$0, (%esp)
	movl	$0, 44(%esp)
	movl	%eax, 28(%esp)
.L2062:
	movl	16(%esp), %eax
	leal	104(%esp), %ebx
	xorl	%esi, %esi
	movl	%edi, 60(%esp)
	movl	%eax, 56(%esp)
.L2068:
	movl	36(%esp), %eax
	subl	$4, %esp
	.cfi_def_cfa_offset 1204
	movl	(%eax,%esi,4), %edi
	pushl	%esi
	.cfi_def_cfa_offset 1208
	pushl	40(%esp)
	.cfi_def_cfa_offset 1212
	pushl	%ebp
	.cfi_def_cfa_offset 1216
	movl	64(%esp), %ecx
	movl	32(%esp), %edx
	movl	%edi, %eax
	call	filterScanline
	movl	184(%esp), %eax
	movl	$0, 116(%esp)
	addl	$16, %esp
	.cfi_def_cfa_offset 1200
	movl	$0, (%ebx)
	testl	%eax, %eax
	je	.L2063
	subl	$12, %esp
	.cfi_def_cfa_offset 1212
	pushl	40(%esp)
	.cfi_def_cfa_offset 1216
	pushl	%ebp
	.cfi_def_cfa_offset 1220
	pushl	%edi
	.cfi_def_cfa_offset 1224
	pushl	%ebx
	.cfi_def_cfa_offset 1228
	leal	128(%esp), %edi
	pushl	%edi
	.cfi_def_cfa_offset 1232
	call	*%eax
	addl	$32, %esp
	.cfi_def_cfa_offset 1200
.L2064:
	subl	$12, %esp
	.cfi_def_cfa_offset 1212
	pushl	112(%esp)
	.cfi_def_cfa_offset 1216
	call	free
	addl	$16, %esp
	.cfi_def_cfa_offset 1200
	testl	%esi, %esi
	movl	(%ebx), %eax
	je	.L2127
	cmpl	44(%esp), %eax
	jnb	.L2067
.L2127:
	movl	%eax, 44(%esp)
	movl	%esi, (%esp)
.L2067:
	addl	$1, %esi
	addl	$4, %ebx
	cmpl	$5, %esi
	jne	.L2068
	movzbl	(%esp), %eax
	movl	60(%esp), %edi
	testl	%ebp, %ebp
	movb	%al, -1(%edi)
	je	.L2070
	subl	$4, %esp
	.cfi_def_cfa_offset 1204
	pushl	%ebp
	.cfi_def_cfa_offset 1208
	movl	8(%esp), %eax
	pushl	132(%esp,%eax,4)
	.cfi_def_cfa_offset 1212
	pushl	%edi
	.cfi_def_cfa_offset 1216
	call	memcpy
	addl	$16, %esp
	.cfi_def_cfa_offset 1200
.L2070:
	addl	$1, 40(%esp)
	addl	%ebp, 16(%esp)
	movl	40(%esp), %eax
	addl	52(%esp), %edi
	cmpl	1200(%esp), %eax
	movl	56(%esp), %ecx
	movl	%ecx, 48(%esp)
	jne	.L2062
.L2061:
	xorl	%ebx, %ebx
.L2071:
	subl	$12, %esp
	.cfi_def_cfa_offset 1212
	movl	48(%esp), %eax
	pushl	(%eax,%ebx,4)
	.cfi_def_cfa_offset 1216
	addl	$1, %ebx
	call	free
	addl	$16, %esp
	.cfi_def_cfa_offset 1200
	cmpl	$5, %ebx
	jne	.L2071
	xorl	%eax, %eax
	jmp	.L2139
	.p2align 4,,10
	.p2align 3
.L2063:
	subl	$12, %esp
	.cfi_def_cfa_offset 1212
	pushl	40(%esp)
	.cfi_def_cfa_offset 1216
	pushl	%ebp
	.cfi_def_cfa_offset 1220
	pushl	%edi
	.cfi_def_cfa_offset 1224
	pushl	%ebx
	.cfi_def_cfa_offset 1228
	leal	128(%esp), %eax
	pushl	%eax
	.cfi_def_cfa_offset 1232
	call	lodepng_zlib_compress
	addl	$32, %esp
	.cfi_def_cfa_offset 1200
	jmp	.L2064
	.cfi_endproc
.LFE241:
	.size	filter.isra.16, .-filter.isra.16
	.section	.text.unlikely
.LCOLDE49:
	.text
.LHOTE49:
	.section	.text.unlikely
.LCOLDB50:
	.text
.LHOTB50:
	.p2align 4,,15
	.type	preProcessScanlines, @function
preProcessScanlines:
.LFB213:
	.cfi_startproc
	pushl	%ebp
	.cfi_def_cfa_offset 8
	.cfi_offset 5, -8
	pushl	%edi
	.cfi_def_cfa_offset 12
	.cfi_offset 7, -12
	pushl	%esi
	.cfi_def_cfa_offset 16
	.cfi_offset 6, -16
	pushl	%ebx
	.cfi_def_cfa_offset 20
	.cfi_offset 3, -20
	movl	%edx, %esi
	subl	$380, %esp
	.cfi_def_cfa_offset 400
	movl	408(%esp), %edi
	movl	%eax, 60(%esp)
	movl	408(%esp), %eax
	movl	%ecx, 24(%esp)
	movl	404(%esp), %ebx
	movl	$0, 12(%esp)
	movl	12(%edi), %edx
	movl	16(%eax), %eax
	cmpl	$6, %edx
	ja	.L2145
	imull	CSWTCH.141(,%edx,4), %eax
	movl	%eax, 12(%esp)
.L2145:
	movl	408(%esp), %eax
	movl	8(%eax), %ecx
	testl	%ecx, %ecx
	jne	.L2146
	movl	12(%esp), %eax
	movl	%edx, 8(%esp)
	subl	$12, %esp
	.cfi_def_cfa_offset 412
	imull	412(%esp), %eax
	leal	7(%eax), %ecx
	movl	%eax, 12(%esp)
	shrl	$3, %ecx
	leal	1(%ecx), %edi
	movl	%ecx, 16(%esp)
	imull	%ebx, %edi
	movl	%edi, (%esi)
	pushl	%edi
	.cfi_def_cfa_offset 416
	call	malloc
	movl	76(%esp), %esi
	addl	$16, %esp
	.cfi_def_cfa_offset 400
	testl	%eax, %eax
	movl	4(%esp), %ecx
	movl	8(%esp), %edx
	movl	%eax, (%esi)
	jne	.L2149
	testl	%edi, %edi
	movl	$83, %ebp
	je	.L2149
	addl	$380, %esp
	.cfi_remember_state
	.cfi_def_cfa_offset 20
	movl	%ebp, %eax
	popl	%ebx
	.cfi_restore 3
	.cfi_def_cfa_offset 16
	popl	%esi
	.cfi_restore 6
	.cfi_def_cfa_offset 12
	popl	%edi
	.cfi_restore 7
	.cfi_def_cfa_offset 8
	popl	%ebp
	.cfi_restore 5
	.cfi_def_cfa_offset 4
	ret
.L2149:
	.cfi_restore_state
	cmpl	$7, 12(%esp)
	ja	.L2150
	leal	0(,%ecx,8), %ebp
	cmpl	%ebp, (%esp)
	je	.L2150
	subl	$12, %esp
	.cfi_def_cfa_offset 412
	subl	%ebx, %edi
	pushl	%edi
	.cfi_def_cfa_offset 416
	call	malloc
	addl	$16, %esp
	.cfi_def_cfa_offset 400
	testl	%eax, %eax
	movl	%eax, %esi
	je	.L2230
	subl	$8, %esp
	.cfi_def_cfa_offset 408
	movl	%ebp, %ecx
	pushl	%ebx
	.cfi_def_cfa_offset 412
	pushl	12(%esp)
	.cfi_def_cfa_offset 416
	movl	40(%esp), %edx
	call	addPaddingBits
	pushl	428(%esp)
	.cfi_def_cfa_offset 420
	movl	428(%esp), %eax
	movl	%esi, %edx
	pushl	16(%eax)
	.cfi_def_cfa_offset 424
	movl	432(%esp), %eax
	pushl	12(%eax)
	.cfi_def_cfa_offset 428
	pushl	%ebx
	.cfi_def_cfa_offset 432
	movl	92(%esp), %eax
	movl	432(%esp), %ecx
	movl	(%eax), %eax
	call	filter.isra.16
	addl	$32, %esp
	.cfi_def_cfa_offset 400
	movl	%eax, %ebp
.L2176:
	subl	$12, %esp
	.cfi_def_cfa_offset 412
	pushl	%esi
	.cfi_def_cfa_offset 416
	call	free
	addl	$16, %esp
	.cfi_def_cfa_offset 400
	movl	%ebp, %eax
	addl	$380, %esp
	.cfi_remember_state
	.cfi_def_cfa_offset 20
	popl	%ebx
	.cfi_restore 3
	.cfi_def_cfa_offset 16
	popl	%esi
	.cfi_restore 6
	.cfi_def_cfa_offset 12
	popl	%edi
	.cfi_restore 7
	.cfi_def_cfa_offset 8
	popl	%ebp
	.cfi_restore 5
	.cfi_def_cfa_offset 4
	ret
.L2146:
	.cfi_restore_state
	subl	$12, %esp
	.cfi_def_cfa_offset 412
	pushl	24(%esp)
	.cfi_def_cfa_offset 416
	pushl	%ebx
	.cfi_def_cfa_offset 420
	pushl	420(%esp)
	.cfi_def_cfa_offset 424
	leal	264(%esp), %eax
	pushl	%eax
	.cfi_def_cfa_offset 428
	leal	236(%esp), %eax
	pushl	%eax
	.cfi_def_cfa_offset 432
	leal	208(%esp), %ecx
	leal	124(%esp), %edx
	leal	96(%esp), %eax
	call	Adam7_getpassvalues
	movl	236(%esp), %eax
	addl	$20, %esp
	.cfi_def_cfa_offset 412
	movl	%eax, (%esi)
	pushl	%eax
	.cfi_def_cfa_offset 416
	call	malloc
	movl	76(%esp), %esi
	addl	$16, %esp
	.cfi_def_cfa_offset 400
	testl	%eax, %eax
	movl	%eax, (%esi)
	je	.L2231
	movl	268(%esp), %esi
	subl	$12, %esp
	.cfi_def_cfa_offset 412
	pushl	%esi
	.cfi_def_cfa_offset 416
	call	malloc
	addl	$16, %esp
	.cfi_def_cfa_offset 400
	testl	%eax, %eax
	movl	%eax, %edi
	jne	.L2180
	testl	%esi, %esi
	je	.L2180
.L2178:
	xorl	%edi, %edi
	movl	$83, %ebp
.L2173:
	subl	$12, %esp
	.cfi_def_cfa_offset 412
	pushl	%edi
	.cfi_def_cfa_offset 416
	call	free
	addl	$16, %esp
	.cfi_def_cfa_offset 400
.L2234:
	addl	$380, %esp
	.cfi_remember_state
	.cfi_def_cfa_offset 20
	movl	%ebp, %eax
	popl	%ebx
	.cfi_restore 3
	.cfi_def_cfa_offset 16
	popl	%esi
	.cfi_restore 6
	.cfi_def_cfa_offset 12
	popl	%edi
	.cfi_restore 7
	.cfi_def_cfa_offset 8
	popl	%ebp
	.cfi_restore 5
	.cfi_def_cfa_offset 4
	ret
.L2150:
	.cfi_restore_state
	pushl	412(%esp)
	.cfi_def_cfa_offset 404
	movl	412(%esp), %esi
	pushl	16(%esi)
	.cfi_def_cfa_offset 408
	pushl	%edx
	.cfi_def_cfa_offset 412
	pushl	%ebx
	.cfi_def_cfa_offset 416
	movl	416(%esp), %ecx
	movl	40(%esp), %edx
	call	filter.isra.16
	addl	$16, %esp
	.cfi_def_cfa_offset 400
	movl	%eax, %ebp
	addl	$380, %esp
	.cfi_remember_state
	.cfi_def_cfa_offset 20
	movl	%ebp, %eax
	popl	%ebx
	.cfi_restore 3
	.cfi_def_cfa_offset 16
	popl	%esi
	.cfi_restore 6
	.cfi_def_cfa_offset 12
	popl	%edi
	.cfi_restore 7
	.cfi_def_cfa_offset 8
	popl	%ebp
	.cfi_restore 5
	.cfi_def_cfa_offset 4
	ret
.L2180:
	.cfi_restore_state
	subl	$12, %esp
	.cfi_def_cfa_offset 412
	movl	24(%esp), %esi
	pushl	%esi
	.cfi_def_cfa_offset 416
	pushl	%ebx
	.cfi_def_cfa_offset 420
	pushl	420(%esp)
	.cfi_def_cfa_offset 424
	leal	360(%esp), %eax
	pushl	%eax
	.cfi_def_cfa_offset 428
	leal	332(%esp), %eax
	pushl	%eax
	.cfi_def_cfa_offset 432
	leal	304(%esp), %ecx
	leal	180(%esp), %edx
	leal	152(%esp), %eax
	call	Adam7_getpassvalues
	addl	$32, %esp
	.cfi_def_cfa_offset 400
	cmpl	$7, %esi
	ja	.L2177
	movl	12(%esp), %esi
	movl	400(%esp), %eax
	movl	$0, 40(%esp)
	imull	%esi, %eax
	movl	%eax, 52(%esp)
	movl	%esi, %eax
	movl	24(%esp), %esi
	negl	%eax
	movl	%eax, 56(%esp)
.L2170:
	movl	40(%esp), %ebx
	movl	$0, 36(%esp)
	movl	$0, 32(%esp)
	movl	120(%esp,%ebx,4), %eax
	movl	%eax, 24(%esp)
	imull	12(%esp), %eax
	movl	%eax, 44(%esp)
	movl	148(%esp,%ebx,4), %eax
	testl	%eax, %eax
	movl	%eax, 48(%esp)
	je	.L2163
.L2220:
	movl	24(%esp), %eax
	testl	%eax, %eax
	je	.L2166
	movl	40(%esp), %eax
	movl	32(%esp), %ecx
	movl	36(%esp), %edx
	movl	12(%esp), %ebp
	movl	$0, 8(%esp)
	imull	ADAM7_DY(,%eax,4), %ecx
	movl	%eax, %ebx
	addl	ADAM7_IY(,%eax,4), %ecx
	movl	336(%esp,%eax,4), %eax
	imull	52(%esp), %ecx
	leal	(%edx,%eax,8), %edx
	movl	%ebp, %eax
	addl	%edx, %eax
	movl	%eax, (%esp)
	movl	ADAM7_DX(,%ebx,4), %eax
	movl	%eax, 4(%esp)
	subl	$1, %eax
	imull	%ebp, %eax
	imull	ADAM7_IX(,%ebx,4), %ebp
	movl	%ecx, %ebx
	movl	%eax, 20(%esp)
	subl	%edx, %ebx
	movl	20(%esp), %edx
	subl	56(%esp), %edx
	movl	%ebp, %eax
	addl	%ebp, %ebx
	addl	%ecx, %eax
	movl	%edx, 28(%esp)
	notl	%eax
	movl	%eax, 16(%esp)
	.p2align 4,,10
	.p2align 3
.L2165:
	movl	12(%esp), %ecx
	movl	(%esp), %eax
	movl	16(%esp), %edx
	subl	%ecx, %eax
	testl	%ecx, %ecx
	je	.L2169
	movl	%edi, 4(%esp)
	jmp	.L2201
	.p2align 4,,10
	.p2align 3
.L2167:
	leal	(%edx,%ebx), %ecx
	movl	$1, %edi
	shrl	$3, %ebp
	addl	$1, %eax
	subl	$1, %edx
	andl	$7, %ecx
	sall	%cl, %edi
	movl	%edi, %ecx
	movl	4(%esp), %edi
	orb	%cl, (%edi,%ebp)
	cmpl	(%esp), %eax
	je	.L2232
.L2201:
	leal	(%eax,%ebx), %ecx
	shrl	$3, %ecx
	movzbl	(%esi,%ecx), %ebp
	movl	%edx, %ecx
	andl	$7, %ecx
	btl	%ecx, %ebp
	movl	%eax, %ebp
	jc	.L2167
	leal	(%edx,%ebx), %ecx
	movl	$1, %edi
	shrl	$3, %ebp
	addl	$1, %eax
	subl	$1, %edx
	andl	$7, %ecx
	sall	%cl, %edi
	movl	%edi, %ecx
	movl	4(%esp), %edi
	notl	%ecx
	andb	%cl, (%edi,%ebp)
	cmpl	(%esp), %eax
	jne	.L2201
.L2232:
	movl	4(%esp), %edi
	movl	12(%esp), %ecx
.L2169:
	addl	$1, 8(%esp)
	addl	%ecx, (%esp)
	movl	8(%esp), %eax
	addl	20(%esp), %ebx
	movl	28(%esp), %ecx
	subl	%ecx, 16(%esp)
	cmpl	24(%esp), %eax
	jne	.L2165
.L2166:
	addl	$1, 32(%esp)
	movl	44(%esp), %edx
	movl	32(%esp), %eax
	addl	%edx, 36(%esp)
	cmpl	48(%esp), %eax
	jne	.L2220
.L2163:
	addl	$1, 40(%esp)
	movl	40(%esp), %eax
	cmpl	$7, %eax
	jne	.L2170
.L2171:
	movl	%edi, %ebp
	xorl	%ebx, %ebx
	movl	408(%esp), %edi
	jmp	.L2161
.L2233:
	subl	$12, %esp
	.cfi_def_cfa_offset 412
	movl	224(%esp,%ebx,4), %eax
	subl	220(%esp,%ebx,4), %eax
	pushl	%eax
	.cfi_def_cfa_offset 416
	call	malloc
	addl	$16, %esp
	.cfi_def_cfa_offset 400
	testl	%eax, %eax
	movl	%eax, %esi
	je	.L2186
	movl	12(%esp), %eax
	imull	64(%esp,%ebx,4), %eax
	subl	$8, %esp
	.cfi_def_cfa_offset 408
	movl	248(%esp,%ebx,4), %edx
	pushl	100(%esp,%ebx,4)
	.cfi_def_cfa_offset 412
	addl	%ebp, %edx
	leal	7(%eax), %ecx
	pushl	%eax
	.cfi_def_cfa_offset 416
	movl	%esi, %eax
	andl	$-8, %ecx
	call	addPaddingBits
	movl	76(%esp), %edx
	movl	192(%esp,%ebx,4), %eax
	movl	80(%esp,%ebx,4), %ecx
	addl	(%edx), %eax
	pushl	428(%esp)
	.cfi_def_cfa_offset 420
	movl	%esi, %edx
	pushl	16(%edi)
	.cfi_def_cfa_offset 424
	pushl	12(%edi)
	.cfi_def_cfa_offset 428
	pushl	120(%esp,%ebx,4)
	.cfi_def_cfa_offset 432
	call	filter.isra.16
	movl	%eax, 32(%esp)
	addl	$20, %esp
	.cfi_def_cfa_offset 412
	pushl	%esi
	.cfi_def_cfa_offset 416
	call	free
	addl	$16, %esp
	.cfi_def_cfa_offset 400
	movl	(%esp), %eax
.L2174:
	testl	%eax, %eax
	jne	.L2227
	addl	$1, %ebx
	cmpl	$7, %ebx
	je	.L2227
.L2161:
	cmpl	$7, 12(%esp)
	jbe	.L2233
	movl	60(%esp), %esi
	movl	208(%esp,%ebx,4), %edx
	movl	176(%esp,%ebx,4), %eax
	movl	64(%esp,%ebx,4), %ecx
	addl	(%esi), %eax
	pushl	412(%esp)
	.cfi_def_cfa_offset 404
	addl	%ebp, %edx
	pushl	16(%edi)
	.cfi_def_cfa_offset 408
	pushl	12(%edi)
	.cfi_def_cfa_offset 412
	pushl	104(%esp,%ebx,4)
	.cfi_def_cfa_offset 416
	call	filter.isra.16
	addl	$16, %esp
	.cfi_def_cfa_offset 400
	jmp	.L2174
.L2227:
	subl	$12, %esp
	.cfi_def_cfa_offset 412
	movl	%ebp, %edi
	movl	%eax, %ebp
	pushl	%edi
	.cfi_def_cfa_offset 416
	call	free
	addl	$16, %esp
	.cfi_def_cfa_offset 400
	jmp	.L2234
.L2231:
	movl	268(%esp), %ebx
	subl	$12, %esp
	.cfi_def_cfa_offset 412
	pushl	%ebx
	.cfi_def_cfa_offset 416
	call	malloc
	addl	$16, %esp
	.cfi_def_cfa_offset 400
	testl	%eax, %eax
	movl	%eax, %edi
	jne	.L2187
	testl	%ebx, %ebx
	jne	.L2178
.L2187:
	subl	$12, %esp
	.cfi_def_cfa_offset 412
	movl	$83, %ebp
	pushl	%edi
	.cfi_def_cfa_offset 416
	call	free
	addl	$16, %esp
	.cfi_def_cfa_offset 400
	jmp	.L2234
.L2230:
	movl	$83, %ebp
	jmp	.L2176
.L2177:
	movl	12(%esp), %eax
	movl	$0, 20(%esp)
	movl	%edi, 28(%esp)
	shrl	$3, %eax
	movl	%eax, %esi
	movl	20(%esp), %eax
.L2160:
	movl	148(%esp,%eax,4), %ebx
	testl	%ebx, %ebx
	movl	%ebx, 36(%esp)
	je	.L2154
	movl	120(%esp,%eax,4), %eax
	movl	$0, 16(%esp)
	movl	$0, 8(%esp)
	movl	%eax, (%esp)
	imull	%esi, %eax
	movl	%eax, 32(%esp)
.L2155:
	movl	(%esp), %edx
	testl	%edx, %edx
	je	.L2159
	movl	20(%esp), %eax
	movl	8(%esp), %edx
	xorl	%ebp, %ebp
	movl	16(%esp), %ebx
	imull	ADAM7_DY(,%eax,4), %edx
	movl	ADAM7_DX(,%eax,4), %edi
	addl	336(%esp,%eax,4), %ebx
	addl	28(%esp), %ebx
	addl	ADAM7_IY(,%eax,4), %edx
	imull	400(%esp), %edx
	imull	%esi, %edi
	addl	ADAM7_IX(,%eax,4), %edx
	movl	24(%esp), %eax
	movl	%edi, 4(%esp)
	imull	%esi, %edx
	testl	%esi, %esi
	leal	(%eax,%edx), %edi
	je	.L2223
	movl	%ebp, %eax
	movl	%ebx, %ebp
	movl	%eax, %ebx
	.p2align 4,,10
	.p2align 3
.L2212:
	subl	$4, %esp
	.cfi_def_cfa_offset 404
	addl	$1, %ebx
	pushl	%esi
	.cfi_def_cfa_offset 408
	pushl	%edi
	.cfi_def_cfa_offset 412
	pushl	%ebp
	.cfi_def_cfa_offset 416
	addl	%esi, %ebp
	call	memcpy
	addl	20(%esp), %edi
	addl	$16, %esp
	.cfi_def_cfa_offset 400
	cmpl	(%esp), %ebx
	jne	.L2212
.L2159:
	addl	$1, 8(%esp)
	movl	32(%esp), %edi
	movl	8(%esp), %eax
	addl	%edi, 16(%esp)
	cmpl	36(%esp), %eax
	jne	.L2155
.L2154:
	addl	$1, 20(%esp)
	movl	20(%esp), %eax
	cmpl	$7, %eax
	jne	.L2160
	movl	28(%esp), %edi
	jmp	.L2171
	.p2align 4,,10
	.p2align 3
.L2223:
	movl	%esi, 40(%esp)
	movl	%edi, %esi
	movl	%ebx, %edi
	movl	4(%esp), %ebx
	.p2align 4,,10
	.p2align 3
.L2158:
	subl	$4, %esp
	.cfi_def_cfa_offset 404
	addl	$1, %ebp
	pushl	$1
	.cfi_def_cfa_offset 408
	pushl	%esi
	.cfi_def_cfa_offset 412
	addl	%ebx, %esi
	pushl	%edi
	.cfi_def_cfa_offset 416
	call	memcpy
	addl	$16, %esp
	.cfi_def_cfa_offset 400
	cmpl	(%esp), %ebp
	jne	.L2158
	movl	40(%esp), %esi
	jmp	.L2159
.L2186:
	movl	%ebp, %edi
	movl	$83, %ebp
	jmp	.L2173
	.cfi_endproc
.LFE213:
	.size	preProcessScanlines, .-preProcessScanlines
	.section	.text.unlikely
.LCOLDE50:
	.text
.LHOTE50:
	.section	.text.unlikely
.LCOLDB51:
	.text
.LHOTB51:
	.p2align 4,,15
	.globl	lodepng_compress_settings_init
	.type	lodepng_compress_settings_init, @function
lodepng_compress_settings_init:
.LFB94:
	.cfi_startproc
	movl	4(%esp), %eax
	movl	$2, (%eax)
	movl	$1, 4(%eax)
	movl	$2048, 8(%eax)
	movl	$3, 12(%eax)
	movl	$128, 16(%eax)
	movl	$1, 20(%eax)
	movl	$0, 24(%eax)
	movl	$0, 28(%eax)
	movl	$0, 32(%eax)
	ret
	.cfi_endproc
.LFE94:
	.size	lodepng_compress_settings_init, .-lodepng_compress_settings_init
	.section	.text.unlikely
.LCOLDE51:
	.text
.LHOTE51:
	.section	.text.unlikely
.LCOLDB52:
	.text
.LHOTB52:
	.p2align 4,,15
	.globl	lodepng_decompress_settings_init
	.type	lodepng_decompress_settings_init, @function
lodepng_decompress_settings_init:
.LFB95:
	.cfi_startproc
	movl	4(%esp), %eax
	movl	$0, (%eax)
	movl	$0, 4(%eax)
	movl	$0, 8(%eax)
	movl	$0, 12(%eax)
	ret
	.cfi_endproc
.LFE95:
	.size	lodepng_decompress_settings_init, .-lodepng_decompress_settings_init
	.section	.text.unlikely
.LCOLDE52:
	.text
.LHOTE52:
	.section	.text.unlikely
.LCOLDB53:
	.text
.LHOTB53:
	.p2align 4,,15
	.globl	lodepng_crc32
	.type	lodepng_crc32, @function
lodepng_crc32:
.LFB96:
	.cfi_startproc
	pushl	%ebx
	.cfi_def_cfa_offset 8
	.cfi_offset 3, -8
	movl	12(%esp), %ebx
	testl	%ebx, %ebx
	je	.L2240
	movl	8(%esp), %edx
	movl	$-1, %eax
	addl	%edx, %ebx
	.p2align 4,,10
	.p2align 3
.L2239:
	movl	%eax, %ecx
	xorb	(%edx), %cl
	addl	$1, %edx
	shrl	$8, %eax
	movzbl	%cl, %ecx
	xorl	lodepng_crc32_table(,%ecx,4), %eax
	cmpl	%ebx, %edx
	jne	.L2239
	notl	%eax
	popl	%ebx
	.cfi_remember_state
	.cfi_restore 3
	.cfi_def_cfa_offset 4
	ret
.L2240:
	.cfi_restore_state
	xorl	%eax, %eax
	popl	%ebx
	.cfi_restore 3
	.cfi_def_cfa_offset 4
	ret
	.cfi_endproc
.LFE96:
	.size	lodepng_crc32, .-lodepng_crc32
	.section	.text.unlikely
.LCOLDE53:
	.text
.LHOTE53:
	.section	.text.unlikely
.LCOLDB54:
	.text
.LHOTB54:
	.p2align 4,,15
	.globl	lodepng_chunk_length
	.type	lodepng_chunk_length, @function
lodepng_chunk_length:
.LFB101:
	.cfi_startproc
	movl	4(%esp), %edx
	movzbl	(%edx), %eax
	sall	$24, %eax
	movl	%eax, %ecx
	movzbl	1(%edx), %eax
	sall	$16, %eax
	orl	%ecx, %eax
	movzbl	3(%edx), %ecx
	movzbl	2(%edx), %edx
	orl	%ecx, %eax
	sall	$8, %edx
	orl	%edx, %eax
	ret
	.cfi_endproc
.LFE101:
	.size	lodepng_chunk_length, .-lodepng_chunk_length
	.section	.text.unlikely
.LCOLDE54:
	.text
.LHOTE54:
	.section	.text.unlikely
.LCOLDB55:
	.text
.LHOTB55:
	.p2align 4,,15
	.globl	lodepng_chunk_type
	.type	lodepng_chunk_type, @function
lodepng_chunk_type:
.LFB102:
	.cfi_startproc
	pushl	%ebx
	.cfi_def_cfa_offset 8
	.cfi_offset 3, -8
	movl	12(%esp), %edx
	movl	8(%esp), %eax
	movl	%edx, %ecx
	orl	%eax, %ecx
	andl	$3, %ecx
	jne	.L2245
	leal	8(%edx), %ecx
	cmpl	%ecx, %eax
	setnb	%bl
	cmpl	%edx, %eax
	setbe	%cl
	orb	%cl, %bl
	je	.L2245
	movl	4(%edx), %edx
	movb	$0, 4(%eax)
	movl	%edx, (%eax)
	popl	%ebx
	.cfi_remember_state
	.cfi_restore 3
	.cfi_def_cfa_offset 4
	ret
	.p2align 4,,10
	.p2align 3
.L2245:
	.cfi_restore_state
	movzbl	4(%edx), %ecx
	movb	%cl, (%eax)
	movzbl	5(%edx), %ecx
	movb	%cl, 1(%eax)
	movzbl	6(%edx), %ecx
	movb	%cl, 2(%eax)
	movzbl	7(%edx), %edx
	movb	$0, 4(%eax)
	movb	%dl, 3(%eax)
	popl	%ebx
	.cfi_restore 3
	.cfi_def_cfa_offset 4
	ret
	.cfi_endproc
.LFE102:
	.size	lodepng_chunk_type, .-lodepng_chunk_type
	.section	.text.unlikely
.LCOLDE55:
	.text
.LHOTE55:
	.section	.text.unlikely
.LCOLDB56:
	.text
.LHOTB56:
	.p2align 4,,15
	.globl	lodepng_chunk_type_equals
	.type	lodepng_chunk_type_equals, @function
lodepng_chunk_type_equals:
.LFB103:
	.cfi_startproc
	pushl	%ebx
	.cfi_def_cfa_offset 8
	.cfi_offset 3, -8
	subl	$20, %esp
	.cfi_def_cfa_offset 28
	movl	32(%esp), %ebx
	pushl	%ebx
	.cfi_def_cfa_offset 32
	call	strlen
	addl	$16, %esp
	.cfi_def_cfa_offset 16
	xorl	%edx, %edx
	cmpl	$4, %eax
	je	.L2262
.L2255:
	addl	$8, %esp
	.cfi_remember_state
	.cfi_def_cfa_offset 8
	movl	%edx, %eax
	popl	%ebx
	.cfi_restore 3
	.cfi_def_cfa_offset 4
	ret
	.p2align 4,,10
	.p2align 3
.L2262:
	.cfi_restore_state
	movl	16(%esp), %eax
	movzbl	4(%eax), %ecx
	movsbl	(%ebx), %eax
	cmpl	%eax, %ecx
	jne	.L2255
	movl	16(%esp), %eax
	movzbl	5(%eax), %ecx
	movsbl	1(%ebx), %eax
	cmpl	%eax, %ecx
	jne	.L2255
	movl	16(%esp), %eax
	movzbl	6(%eax), %ecx
	movsbl	2(%ebx), %eax
	cmpl	%eax, %ecx
	jne	.L2255
	movl	16(%esp), %eax
	movzbl	7(%eax), %edx
	movsbl	3(%ebx), %eax
	cmpl	%eax, %edx
	sete	%dl
	jmp	.L2255
	.cfi_endproc
.LFE103:
	.size	lodepng_chunk_type_equals, .-lodepng_chunk_type_equals
	.section	.text.unlikely
.LCOLDE56:
	.text
.LHOTE56:
	.section	.text.unlikely
.LCOLDB57:
	.text
.LHOTB57:
	.p2align 4,,15
	.globl	lodepng_chunk_ancillary
	.type	lodepng_chunk_ancillary, @function
lodepng_chunk_ancillary:
.LFB104:
	.cfi_startproc
	movl	4(%esp), %eax
	movzbl	4(%eax), %eax
	shrb	$5, %al
	andl	$1, %eax
	ret
	.cfi_endproc
.LFE104:
	.size	lodepng_chunk_ancillary, .-lodepng_chunk_ancillary
	.section	.text.unlikely
.LCOLDE57:
	.text
.LHOTE57:
	.section	.text.unlikely
.LCOLDB58:
	.text
.LHOTB58:
	.p2align 4,,15
	.globl	lodepng_chunk_private
	.type	lodepng_chunk_private, @function
lodepng_chunk_private:
.LFB105:
	.cfi_startproc
	movl	4(%esp), %eax
	movzbl	6(%eax), %eax
	shrb	$5, %al
	andl	$1, %eax
	ret
	.cfi_endproc
.LFE105:
	.size	lodepng_chunk_private, .-lodepng_chunk_private
	.section	.text.unlikely
.LCOLDE58:
	.text
.LHOTE58:
	.section	.text.unlikely
.LCOLDB59:
	.text
.LHOTB59:
	.p2align 4,,15
	.globl	lodepng_chunk_safetocopy
	.type	lodepng_chunk_safetocopy, @function
lodepng_chunk_safetocopy:
.LFB106:
	.cfi_startproc
	movl	4(%esp), %eax
	movzbl	7(%eax), %eax
	shrb	$5, %al
	andl	$1, %eax
	ret
	.cfi_endproc
.LFE106:
	.size	lodepng_chunk_safetocopy, .-lodepng_chunk_safetocopy
	.section	.text.unlikely
.LCOLDE59:
	.text
.LHOTE59:
	.section	.text.unlikely
.LCOLDB60:
	.text
.LHOTB60:
	.p2align 4,,15
	.globl	lodepng_chunk_data
	.type	lodepng_chunk_data, @function
lodepng_chunk_data:
.LFB107:
	.cfi_startproc
	movl	4(%esp), %eax
	addl	$8, %eax
	ret
	.cfi_endproc
.LFE107:
	.size	lodepng_chunk_data, .-lodepng_chunk_data
	.section	.text.unlikely
.LCOLDE60:
	.text
.LHOTE60:
	.section	.text.unlikely
.LCOLDB61:
	.text
.LHOTB61:
	.p2align 4,,15
	.globl	lodepng_chunk_data_const
	.type	lodepng_chunk_data_const, @function
lodepng_chunk_data_const:
.LFB108:
	.cfi_startproc
	movl	4(%esp), %eax
	addl	$8, %eax
	ret
	.cfi_endproc
.LFE108:
	.size	lodepng_chunk_data_const, .-lodepng_chunk_data_const
	.section	.text.unlikely
.LCOLDE61:
	.text
.LHOTE61:
	.section	.text.unlikely
.LCOLDB62:
	.text
.LHOTB62:
	.p2align 4,,15
	.globl	lodepng_chunk_check_crc
	.type	lodepng_chunk_check_crc, @function
lodepng_chunk_check_crc:
.LFB109:
	.cfi_startproc
	pushl	%edi
	.cfi_def_cfa_offset 8
	.cfi_offset 7, -8
	pushl	%esi
	.cfi_def_cfa_offset 12
	.cfi_offset 6, -12
	pushl	%ebx
	.cfi_def_cfa_offset 16
	.cfi_offset 3, -16
	movl	16(%esp), %esi
	movzbl	(%esi), %ebx
	movzbl	1(%esi), %eax
	sall	$24, %ebx
	sall	$16, %eax
	orl	%eax, %ebx
	movzbl	3(%esi), %eax
	orl	%eax, %ebx
	movzbl	2(%esi), %eax
	sall	$8, %eax
	orl	%eax, %ebx
	leal	8(%esi,%ebx), %edx
	movzbl	(%edx), %edi
	movzbl	1(%edx), %eax
	sall	$24, %edi
	sall	$16, %eax
	orl	%eax, %edi
	movzbl	3(%edx), %eax
	orl	%eax, %edi
	movzbl	2(%edx), %eax
	sall	$8, %eax
	orl	%eax, %edi
	addl	$4, %ebx
	je	.L2269
	movl	$-1, %eax
	xorl	%edx, %edx
	.p2align 4,,10
	.p2align 3
.L2270:
	movl	%eax, %ecx
	xorb	4(%esi,%edx), %cl
	addl	$1, %edx
	shrl	$8, %eax
	movzbl	%cl, %ecx
	xorl	lodepng_crc32_table(,%ecx,4), %eax
	cmpl	%edx, %ebx
	jne	.L2270
	notl	%eax
	movl	%eax, %ebx
.L2269:
	xorl	%eax, %eax
	cmpl	%ebx, %edi
	setne	%al
	popl	%ebx
	.cfi_restore 3
	.cfi_def_cfa_offset 12
	popl	%esi
	.cfi_restore 6
	.cfi_def_cfa_offset 8
	popl	%edi
	.cfi_restore 7
	.cfi_def_cfa_offset 4
	ret
	.cfi_endproc
.LFE109:
	.size	lodepng_chunk_check_crc, .-lodepng_chunk_check_crc
	.section	.text.unlikely
.LCOLDE62:
	.text
.LHOTE62:
	.section	.text.unlikely
.LCOLDB63:
	.text
.LHOTB63:
	.p2align 4,,15
	.globl	lodepng_chunk_generate_crc
	.type	lodepng_chunk_generate_crc, @function
lodepng_chunk_generate_crc:
.LFB110:
	.cfi_startproc
	pushl	%ebp
	.cfi_def_cfa_offset 8
	.cfi_offset 5, -8
	pushl	%edi
	.cfi_def_cfa_offset 12
	.cfi_offset 7, -12
	pushl	%esi
	.cfi_def_cfa_offset 16
	.cfi_offset 6, -16
	pushl	%ebx
	.cfi_def_cfa_offset 20
	.cfi_offset 3, -20
	movl	20(%esp), %ecx
	movzbl	(%ecx), %ebx
	movzbl	1(%ecx), %eax
	sall	$24, %ebx
	sall	$16, %eax
	orl	%eax, %ebx
	movzbl	3(%ecx), %eax
	orl	%eax, %ebx
	movzbl	2(%ecx), %eax
	sall	$8, %eax
	orl	%eax, %ebx
	movl	%ebx, %edi
	movl	%ebx, %ebp
	addl	$4, %edi
	je	.L2279
	movl	$-1, %eax
	xorl	%edx, %edx
	.p2align 4,,10
	.p2align 3
.L2278:
	movl	%eax, %ebx
	xorb	4(%ecx,%edx), %bl
	addl	$1, %edx
	shrl	$8, %eax
	movzbl	%bl, %esi
	xorl	lodepng_crc32_table(,%esi,4), %eax
	cmpl	%edx, %edi
	jne	.L2278
	notl	%eax
	movl	%eax, %edi
	movl	%eax, %esi
	movl	%eax, %edx
	shrl	$24, %edi
	shrl	$16, %esi
	shrl	$8, %edx
.L2277:
	leal	8(%ecx,%ebp), %ecx
	movl	%edi, %ebx
	movb	%bl, (%ecx)
	movl	%esi, %ebx
	movb	%dl, 2(%ecx)
	movb	%bl, 1(%ecx)
	movb	%al, 3(%ecx)
	popl	%ebx
	.cfi_remember_state
	.cfi_restore 3
	.cfi_def_cfa_offset 16
	popl	%esi
	.cfi_restore 6
	.cfi_def_cfa_offset 12
	popl	%edi
	.cfi_restore 7
	.cfi_def_cfa_offset 8
	popl	%ebp
	.cfi_restore 5
	.cfi_def_cfa_offset 4
	ret
.L2279:
	.cfi_restore_state
	xorl	%eax, %eax
	xorl	%edx, %edx
	xorl	%esi, %esi
	xorl	%edi, %edi
	jmp	.L2277
	.cfi_endproc
.LFE110:
	.size	lodepng_chunk_generate_crc, .-lodepng_chunk_generate_crc
	.section	.text.unlikely
.LCOLDE63:
	.text
.LHOTE63:
	.section	.text.unlikely
.LCOLDB64:
	.text
.LHOTB64:
	.p2align 4,,15
	.globl	lodepng_chunk_next
	.type	lodepng_chunk_next, @function
lodepng_chunk_next:
.LFB111:
	.cfi_startproc
	movl	4(%esp), %ecx
	movzbl	(%ecx), %eax
	sall	$24, %eax
	movl	%eax, %edx
	movzbl	1(%ecx), %eax
	sall	$16, %eax
	orl	%edx, %eax
	movzbl	3(%ecx), %edx
	orl	%edx, %eax
	movzbl	2(%ecx), %edx
	sall	$8, %edx
	orl	%edx, %eax
	leal	12(%ecx,%eax), %eax
	ret
	.cfi_endproc
.LFE111:
	.size	lodepng_chunk_next, .-lodepng_chunk_next
	.section	.text.unlikely
.LCOLDE64:
	.text
.LHOTE64:
	.section	.text.unlikely
.LCOLDB65:
	.text
.LHOTB65:
	.p2align 4,,15
	.globl	lodepng_chunk_next_const
	.type	lodepng_chunk_next_const, @function
lodepng_chunk_next_const:
.LFB112:
	.cfi_startproc
	movl	4(%esp), %ecx
	movzbl	(%ecx), %eax
	sall	$24, %eax
	movl	%eax, %edx
	movzbl	1(%ecx), %eax
	sall	$16, %eax
	orl	%edx, %eax
	movzbl	3(%ecx), %edx
	orl	%edx, %eax
	movzbl	2(%ecx), %edx
	sall	$8, %edx
	orl	%edx, %eax
	leal	12(%ecx,%eax), %eax
	ret
	.cfi_endproc
.LFE112:
	.size	lodepng_chunk_next_const, .-lodepng_chunk_next_const
	.section	.text.unlikely
.LCOLDE65:
	.text
.LHOTE65:
	.section	.text.unlikely
.LCOLDB66:
	.text
.LHOTB66:
	.p2align 4,,15
	.globl	lodepng_chunk_append
	.type	lodepng_chunk_append, @function
lodepng_chunk_append:
.LFB113:
	.cfi_startproc
	pushl	%ebp
	.cfi_def_cfa_offset 8
	.cfi_offset 5, -8
	pushl	%edi
	.cfi_def_cfa_offset 12
	.cfi_offset 7, -12
	pushl	%esi
	.cfi_def_cfa_offset 16
	.cfi_offset 6, -16
	pushl	%ebx
	.cfi_def_cfa_offset 20
	.cfi_offset 3, -20
	subl	$28, %esp
	.cfi_def_cfa_offset 48
	movl	56(%esp), %esi
	movzbl	(%esi), %ebx
	movzbl	1(%esi), %eax
	sall	$24, %ebx
	sall	$16, %eax
	orl	%eax, %ebx
	movzbl	3(%esi), %eax
	orl	%eax, %ebx
	movzbl	2(%esi), %eax
	sall	$8, %eax
	orl	%eax, %ebx
	movl	52(%esp), %eax
	leal	12(%ebx), %edi
	movl	(%eax), %ebp
	movl	%edi, %edx
	addl	%ebp, %edx
	jc	.L2294
	cmpl	%edx, %ebp
	jbe	.L2310
.L2294:
	movl	$77, %eax
.L2285:
	addl	$28, %esp
	.cfi_remember_state
	.cfi_def_cfa_offset 20
	popl	%ebx
	.cfi_restore 3
	.cfi_def_cfa_offset 16
	popl	%esi
	.cfi_restore 6
	.cfi_def_cfa_offset 12
	popl	%edi
	.cfi_restore 7
	.cfi_def_cfa_offset 8
	popl	%ebp
	.cfi_restore 5
	.cfi_def_cfa_offset 4
	ret
	.p2align 4,,10
	.p2align 3
.L2310:
	.cfi_restore_state
	subl	$8, %esp
	.cfi_def_cfa_offset 56
	pushl	%edx
	.cfi_def_cfa_offset 60
	movl	60(%esp), %eax
	movl	%edx, 24(%esp)
	pushl	(%eax)
	.cfi_def_cfa_offset 64
	call	realloc
	movl	%eax, %ecx
	addl	$16, %esp
	.cfi_def_cfa_offset 48
	movl	$83, %eax
	testl	%ecx, %ecx
	je	.L2285
	movl	48(%esp), %eax
	movl	12(%esp), %edx
	testl	%edi, %edi
	movl	%ecx, (%eax)
	movl	52(%esp), %eax
	movl	%edx, (%eax)
	je	.L2292
	leal	(%ecx,%ebp), %edx
	leal	4(%esi), %eax
	leal	4(%ecx,%ebp), %ecx
	cmpl	%eax, %edx
	setnb	%al
	cmpl	%ecx, %esi
	setnb	%cl
	orl	%ecx, %eax
	cmpl	$9, %edi
	seta	%cl
	testb	%cl, %al
	je	.L2296
	movl	%esi, %eax
	orl	%edx, %eax
	testb	$3, %al
	jne	.L2296
	addl	$8, %ebx
	shrl	$2, %ebx
	leal	1(%ebx), %eax
	xorl	%ebx, %ebx
	leal	0(,%eax,4), %ecx
.L2288:
	movl	(%esi,%ebx,4), %ebp
	movl	%ebp, (%edx,%ebx,4)
	addl	$1, %ebx
	cmpl	%ebx, %eax
	ja	.L2288
	cmpl	%ecx, %edi
	je	.L2292
	movzbl	(%esi,%eax,4), %eax
	leal	1(%ecx), %ebx
	cmpl	%ebx, %edi
	movb	%al, (%edx,%ecx)
	je	.L2292
	movzbl	1(%esi,%ecx), %eax
	movb	%al, 1(%edx,%ecx)
	leal	2(%ecx), %eax
	cmpl	%eax, %edi
	je	.L2292
	movzbl	2(%esi,%ecx), %ecx
	movb	%cl, (%edx,%eax)
.L2292:
	xorl	%eax, %eax
	jmp	.L2285
.L2296:
	xorl	%ecx, %ecx
	.p2align 4,,10
	.p2align 3
.L2287:
	movzbl	(%esi,%ecx), %eax
	movb	%al, (%edx,%ecx)
	addl	$1, %ecx
	cmpl	%ecx, %edi
	jne	.L2287
	xorl	%eax, %eax
	jmp	.L2285
	.cfi_endproc
.LFE113:
	.size	lodepng_chunk_append, .-lodepng_chunk_append
	.section	.text.unlikely
.LCOLDE66:
	.text
.LHOTE66:
	.section	.text.unlikely
.LCOLDB67:
	.text
.LHOTB67:
	.p2align 4,,15
	.globl	lodepng_chunk_create
	.type	lodepng_chunk_create, @function
lodepng_chunk_create:
.LFB114:
	.cfi_startproc
	pushl	%ebp
	.cfi_def_cfa_offset 8
	.cfi_offset 5, -8
	pushl	%edi
	.cfi_def_cfa_offset 12
	.cfi_offset 7, -12
	pushl	%esi
	.cfi_def_cfa_offset 16
	.cfi_offset 6, -16
	pushl	%ebx
	.cfi_def_cfa_offset 20
	.cfi_offset 3, -20
	subl	$28, %esp
	.cfi_def_cfa_offset 48
	movl	52(%esp), %eax
	movl	56(%esp), %esi
	movl	(%eax), %ebx
	leal	12(%esi), %eax
	addl	%ebx, %eax
	jc	.L2321
	cmpl	%eax, %ebx
	movl	%eax, %ebp
	jbe	.L2336
.L2321:
	movl	$77, %eax
.L2312:
	addl	$28, %esp
	.cfi_remember_state
	.cfi_def_cfa_offset 20
	popl	%ebx
	.cfi_restore 3
	.cfi_def_cfa_offset 16
	popl	%esi
	.cfi_restore 6
	.cfi_def_cfa_offset 12
	popl	%edi
	.cfi_restore 7
	.cfi_def_cfa_offset 8
	popl	%ebp
	.cfi_restore 5
	.cfi_def_cfa_offset 4
	ret
	.p2align 4,,10
	.p2align 3
.L2336:
	.cfi_restore_state
	subl	$8, %esp
	.cfi_def_cfa_offset 56
	pushl	%eax
	.cfi_def_cfa_offset 60
	movl	60(%esp), %eax
	pushl	(%eax)
	.cfi_def_cfa_offset 64
	call	realloc
	movl	%eax, %edi
	addl	$16, %esp
	.cfi_def_cfa_offset 48
	movl	$83, %eax
	testl	%edi, %edi
	je	.L2312
	movl	48(%esp), %eax
	movl	%edi, (%eax)
	movl	52(%esp), %eax
	movl	%ebp, (%eax)
	movl	%ebp, %eax
	subl	%esi, %eax
	leal	-12(%edi,%eax), %edx
	movl	%esi, %eax
	shrl	$24, %eax
	movb	%al, (%edx)
	movl	%esi, %eax
	shrl	$16, %eax
	movb	%al, 1(%edx)
	movl	%esi, %eax
	shrl	$8, %eax
	testl	%esi, %esi
	movb	%al, 2(%edx)
	movl	%esi, %eax
	movb	%al, 3(%edx)
	movl	60(%esp), %eax
	movzbl	(%eax), %ecx
	movb	%cl, 4(%edx)
	movzbl	1(%eax), %ecx
	movb	%cl, 5(%edx)
	movzbl	2(%eax), %ecx
	movb	%cl, 6(%edx)
	movzbl	3(%eax), %eax
	movb	%al, 7(%edx)
	je	.L2319
	movl	64(%esp), %eax
	leal	8(%edi,%ebx), %ecx
	addl	$4, %eax
	cmpl	%eax, %ecx
	setnb	%al
	movl	%eax, %ebp
	leal	12(%edi,%ebx), %eax
	cmpl	%eax, 64(%esp)
	setnb	%al
	orl	%ebp, %eax
	cmpl	$9, %esi
	movb	%al, 15(%esp)
	seta	%al
	testb	%al, 15(%esp)
	je	.L2323
	movl	64(%esp), %eax
	orl	%ecx, %eax
	testb	$3, %al
	jne	.L2323
	leal	-4(%esi), %eax
	xorl	%ebx, %ebx
	shrl	$2, %eax
	addl	$1, %eax
	leal	0(,%eax,4), %edi
.L2315:
	movl	64(%esp), %ebp
	movl	0(%ebp,%ebx,4), %ebp
	movl	%ebp, (%ecx,%ebx,4)
	addl	$1, %ebx
	cmpl	%ebx, %eax
	ja	.L2315
	cmpl	%edi, %esi
	je	.L2319
	movl	64(%esp), %ecx
	movzbl	(%ecx,%eax,4), %eax
	movb	%al, 8(%edx,%edi)
	leal	1(%edi), %eax
	cmpl	%eax, %esi
	je	.L2319
	movzbl	1(%ecx,%edi), %eax
	movb	%al, 9(%edx,%edi)
	leal	2(%edi), %eax
	cmpl	%eax, %esi
	je	.L2319
	movl	64(%esp), %eax
	movzbl	2(%eax,%edi), %eax
	movb	%al, 10(%edx,%edi)
.L2319:
	subl	$12, %esp
	.cfi_def_cfa_offset 60
	pushl	%edx
	.cfi_def_cfa_offset 64
	call	lodepng_chunk_generate_crc
	addl	$16, %esp
	.cfi_def_cfa_offset 48
	xorl	%eax, %eax
	jmp	.L2312
.L2323:
	movl	64(%esp), %edi
	xorl	%eax, %eax
	.p2align 4,,10
	.p2align 3
.L2314:
	movzbl	(%edi,%eax), %ecx
	movb	%cl, 8(%edx,%eax)
	addl	$1, %eax
	cmpl	%esi, %eax
	jne	.L2314
	jmp	.L2319
	.cfi_endproc
.LFE114:
	.size	lodepng_chunk_create, .-lodepng_chunk_create
	.section	.text.unlikely
.LCOLDE67:
	.text
.LHOTE67:
	.section	.rodata.str1.1
.LC68:
	.string	"PLTE"
	.section	.text.unlikely
.LCOLDB69:
.LHOTB69:
	.type	addChunk_PLTE.isra.14, @function
addChunk_PLTE.isra.14:
.LFB239:
	.cfi_startproc
	pushl	%ebp
	.cfi_def_cfa_offset 8
	.cfi_offset 5, -8
	pushl	%edi
	.cfi_def_cfa_offset 12
	.cfi_offset 7, -12
	movl	%ecx, %ebp
	pushl	%esi
	.cfi_def_cfa_offset 16
	.cfi_offset 6, -16
	pushl	%ebx
	.cfi_def_cfa_offset 20
	.cfi_offset 3, -20
	movl	%edx, %edi
	xorl	%ebx, %ebx
	subl	$44, %esp
	.cfi_def_cfa_offset 64
	movl	%eax, 12(%esp)
	movl	$0, 20(%esp)
	movl	$0, 28(%esp)
	movl	$0, 24(%esp)
.L2338:
	movl	0(%ebp), %eax
	leal	0(,%eax,4), %esi
	cmpl	%esi, %ebx
	je	.L2346
	movl	%ebx, %eax
	andl	$3, %eax
	cmpl	$3, %eax
	je	.L2339
	movl	(%edi), %eax
	movzbl	(%eax,%ebx), %edx
	leal	20(%esp), %eax
	call	ucvector_push_back
.L2339:
	incl	%ebx
	jmp	.L2338
.L2346:
	subl	$12, %esp
	.cfi_def_cfa_offset 76
	pushl	32(%esp)
	.cfi_def_cfa_offset 80
	pushl	$.LC68
	.cfi_def_cfa_offset 84
	pushl	44(%esp)
	.cfi_def_cfa_offset 88
	movl	36(%esp), %eax
	addl	$4, %eax
	pushl	%eax
	.cfi_def_cfa_offset 92
	pushl	40(%esp)
	.cfi_def_cfa_offset 96
	call	lodepng_chunk_create
	addl	$32, %esp
	.cfi_def_cfa_offset 64
	testl	%eax, %eax
	movl	%eax, %ebx
	jne	.L2341
	movl	12(%esp), %eax
	movl	12(%esp), %ecx
	movl	4(%eax), %eax
	movl	%eax, 8(%ecx)
.L2341:
	movl	$0, 28(%esp)
	movl	$0, 24(%esp)
	subl	$12, %esp
	.cfi_def_cfa_offset 76
	pushl	32(%esp)
	.cfi_def_cfa_offset 80
	call	free
	addl	$60, %esp
	.cfi_def_cfa_offset 20
	movl	%ebx, %eax
	popl	%ebx
	.cfi_restore 3
	.cfi_def_cfa_offset 16
	popl	%esi
	.cfi_restore 6
	.cfi_def_cfa_offset 12
	popl	%edi
	.cfi_restore 7
	.cfi_def_cfa_offset 8
	popl	%ebp
	.cfi_restore 5
	.cfi_def_cfa_offset 4
	ret
	.cfi_endproc
.LFE239:
	.size	addChunk_PLTE.isra.14, .-addChunk_PLTE.isra.14
.LCOLDE69:
.LHOTE69:
	.section	.rodata.str1.1
.LC70:
	.string	"tRNS"
	.section	.text.unlikely
.LCOLDB71:
.LHOTB71:
	.type	addChunk_tRNS, @function
addChunk_tRNS:
.LFB199:
	.cfi_startproc
	pushl	%ebp
	.cfi_def_cfa_offset 8
	.cfi_offset 5, -8
	pushl	%edi
	.cfi_def_cfa_offset 12
	.cfi_offset 7, -12
	movl	%eax, %edi
	pushl	%esi
	.cfi_def_cfa_offset 16
	.cfi_offset 6, -16
	pushl	%ebx
	.cfi_def_cfa_offset 20
	.cfi_offset 3, -20
	movl	%edx, %ebp
	subl	$28, %esp
	.cfi_def_cfa_offset 48
	movl	(%edx), %eax
	movl	$0, 4(%esp)
	movl	$0, 12(%esp)
	movl	$0, 8(%esp)
	cmpl	$3, %eax
	jne	.L2348
	movl	12(%edx), %ebx
	leal	-1(,%ebx,4), %ecx
.L2349:
	testl	%ebx, %ebx
	je	.L2353
	movl	8(%ebp), %eax
	movb	(%eax,%ecx), %al
	subl	$4, %ecx
	incb	%al
	je	.L2350
.L2353:
	xorl	%esi, %esi
	jmp	.L2351
.L2350:
	decl	%ebx
	jmp	.L2349
.L2351:
	cmpl	%ebx, %esi
	je	.L2355
	movl	8(%ebp), %eax
	movzbl	3(%eax,%esi,4), %edx
	leal	4(%esp), %eax
	incl	%esi
	call	ucvector_push_back
	jmp	.L2351
.L2348:
	testl	%eax, %eax
	jne	.L2356
	cmpl	$0, 16(%edx)
	je	.L2355
	movl	20(%edx), %edx
	leal	4(%esp), %eax
	movzbl	%dh, %edx
	call	ucvector_push_back
	movzbl	20(%ebp), %edx
	leal	4(%esp), %eax
	call	ucvector_push_back
	jmp	.L2355
.L2356:
	cmpl	$2, %eax
	jne	.L2355
	cmpl	$0, 16(%edx)
	je	.L2355
	movl	20(%edx), %eax
	movzbl	%ah, %edx
	leal	4(%esp), %eax
	call	ucvector_push_back
	movzbl	20(%ebp), %edx
	leal	4(%esp), %eax
	call	ucvector_push_back
	movl	24(%ebp), %eax
	movzbl	%ah, %edx
	leal	4(%esp), %eax
	call	ucvector_push_back
	movzbl	24(%ebp), %edx
	leal	4(%esp), %eax
	call	ucvector_push_back
	movl	28(%ebp), %eax
	movzbl	%ah, %edx
	leal	4(%esp), %eax
	call	ucvector_push_back
	movzbl	28(%ebp), %edx
	leal	4(%esp), %eax
	call	ucvector_push_back
.L2355:
	leal	4(%edi), %eax
	subl	$12, %esp
	.cfi_def_cfa_offset 60
	pushl	16(%esp)
	.cfi_def_cfa_offset 64
	pushl	$.LC70
	.cfi_def_cfa_offset 68
	pushl	28(%esp)
	.cfi_def_cfa_offset 72
	pushl	%eax
	.cfi_def_cfa_offset 76
	pushl	%edi
	.cfi_def_cfa_offset 80
	call	lodepng_chunk_create
	addl	$32, %esp
	.cfi_def_cfa_offset 48
	testl	%eax, %eax
	movl	%eax, %ebx
	jne	.L2358
	movl	4(%edi), %eax
	movl	%eax, 8(%edi)
.L2358:
	movl	$0, 12(%esp)
	movl	$0, 8(%esp)
	subl	$12, %esp
	.cfi_def_cfa_offset 60
	pushl	16(%esp)
	.cfi_def_cfa_offset 64
	call	free
	addl	$44, %esp
	.cfi_def_cfa_offset 20
	movl	%ebx, %eax
	popl	%ebx
	.cfi_restore 3
	.cfi_def_cfa_offset 16
	popl	%esi
	.cfi_restore 6
	.cfi_def_cfa_offset 12
	popl	%edi
	.cfi_restore 7
	.cfi_def_cfa_offset 8
	popl	%ebp
	.cfi_restore 5
	.cfi_def_cfa_offset 4
	ret
	.cfi_endproc
.LFE199:
	.size	addChunk_tRNS, .-addChunk_tRNS
.LCOLDE71:
.LHOTE71:
	.section	.rodata.str1.1
.LC72:
	.string	"tEXt"
	.section	.text.unlikely
.LCOLDB73:
	.text
.LHOTB73:
	.p2align 4,,15
	.type	addChunk_tEXt, @function
addChunk_tEXt:
.LFB202:
	.cfi_startproc
	pushl	%ebp
	.cfi_def_cfa_offset 8
	.cfi_offset 5, -8
	pushl	%edi
	.cfi_def_cfa_offset 12
	.cfi_offset 7, -12
	pushl	%esi
	.cfi_def_cfa_offset 16
	.cfi_offset 6, -16
	pushl	%ebx
